
httpd.stripped:     file format elf32-i386


Disassembly of section .init:

08049464 <.init>:
 8049464:	e8 57 07 00 00       	call   8049bc0 <_btext+0x150>
 8049469:	e8 12 b6 00 00       	call   8054a80 <__umoddi3+0x130>
 804946e:	c2 00 00             	ret    $0x0

Disassembly of section .plt:

08049474 <clock_gettime@plt-0x10>:
 8049474:	ff 35 d0 76 05 08    	pushl  0x80576d0
 804947a:	ff 25 d4 76 05 08    	jmp    *0x80576d4
 8049480:	00 00                	add    %al,(%eax)
	...

08049484 <clock_gettime@plt>:
 8049484:	ff 25 d8 76 05 08    	jmp    *0x80576d8
 804948a:	68 00 00 00 00       	push   $0x0
 804948f:	e9 e0 ff ff ff       	jmp    8049474 <clock_gettime@plt-0x10>

08049494 <chroot@plt>:
 8049494:	ff 25 dc 76 05 08    	jmp    *0x80576dc
 804949a:	68 08 00 00 00       	push   $0x8
 804949f:	e9 d0 ff ff ff       	jmp    8049474 <clock_gettime@plt-0x10>

080494a4 <strcpy@plt>:
 80494a4:	ff 25 e0 76 05 08    	jmp    *0x80576e0
 80494aa:	68 10 00 00 00       	push   $0x10
 80494af:	e9 c0 ff ff ff       	jmp    8049474 <clock_gettime@plt-0x10>

080494b4 <MsgSend@plt>:
 80494b4:	ff 25 e4 76 05 08    	jmp    *0x80576e4
 80494ba:	68 18 00 00 00       	push   $0x18
 80494bf:	e9 b0 ff ff ff       	jmp    8049474 <clock_gettime@plt-0x10>

080494c4 <_init_array@plt>:
 80494c4:	ff 25 e8 76 05 08    	jmp    *0x80576e8
 80494ca:	68 20 00 00 00       	push   $0x20
 80494cf:	e9 a0 ff ff ff       	jmp    8049474 <clock_gettime@plt-0x10>

080494d4 <geteuid@plt>:
 80494d4:	ff 25 ec 76 05 08    	jmp    *0x80576ec
 80494da:	68 28 00 00 00       	push   $0x28
 80494df:	e9 90 ff ff ff       	jmp    8049474 <clock_gettime@plt-0x10>

080494e4 <munmap@plt>:
 80494e4:	ff 25 f0 76 05 08    	jmp    *0x80576f0
 80494ea:	68 30 00 00 00       	push   $0x30
 80494ef:	e9 80 ff ff ff       	jmp    8049474 <clock_gettime@plt-0x10>

080494f4 <bind@plt>:
 80494f4:	ff 25 f4 76 05 08    	jmp    *0x80576f4
 80494fa:	68 38 00 00 00       	push   $0x38
 80494ff:	e9 70 ff ff ff       	jmp    8049474 <clock_gettime@plt-0x10>

08049504 <ConnectClientInfo@plt>:
 8049504:	ff 25 f8 76 05 08    	jmp    *0x80576f8
 804950a:	68 40 00 00 00       	push   $0x40
 804950f:	e9 60 ff ff ff       	jmp    8049474 <clock_gettime@plt-0x10>

08049514 <shm_open@plt>:
 8049514:	ff 25 fc 76 05 08    	jmp    *0x80576fc
 804951a:	68 48 00 00 00       	push   $0x48
 804951f:	e9 50 ff ff ff       	jmp    8049474 <clock_gettime@plt-0x10>

08049524 <timer_create@plt>:
 8049524:	ff 25 00 77 05 08    	jmp    *0x8057700
 804952a:	68 50 00 00 00       	push   $0x50
 804952f:	e9 40 ff ff ff       	jmp    8049474 <clock_gettime@plt-0x10>

08049534 <setsockopt@plt>:
 8049534:	ff 25 04 77 05 08    	jmp    *0x8057704
 804953a:	68 58 00 00 00       	push   $0x58
 804953f:	e9 30 ff ff ff       	jmp    8049474 <clock_gettime@plt-0x10>

08049544 <getpid@plt>:
 8049544:	ff 25 08 77 05 08    	jmp    *0x8057708
 804954a:	68 60 00 00 00       	push   $0x60
 804954f:	e9 20 ff ff ff       	jmp    8049474 <clock_gettime@plt-0x10>

08049554 <_preinit_array@plt>:
 8049554:	ff 25 0c 77 05 08    	jmp    *0x805770c
 804955a:	68 68 00 00 00       	push   $0x68
 804955f:	e9 10 ff ff ff       	jmp    8049474 <clock_gettime@plt-0x10>

08049564 <fgets@plt>:
 8049564:	ff 25 10 77 05 08    	jmp    *0x8057710
 804956a:	68 70 00 00 00       	push   $0x70
 804956f:	e9 00 ff ff ff       	jmp    8049474 <clock_gettime@plt-0x10>

08049574 <memcpy@plt>:
 8049574:	ff 25 14 77 05 08    	jmp    *0x8057714
 804957a:	68 78 00 00 00       	push   $0x78
 804957f:	e9 f0 fe ff ff       	jmp    8049474 <clock_gettime@plt-0x10>

08049584 <__cxa_finalize@plt>:
 8049584:	ff 25 18 77 05 08    	jmp    *0x8057718
 804958a:	68 80 00 00 00       	push   $0x80
 804958f:	e9 e0 fe ff ff       	jmp    8049474 <clock_gettime@plt-0x10>

08049594 <mbrtowc@plt>:
 8049594:	ff 25 1c 77 05 08    	jmp    *0x805771c
 804959a:	68 88 00 00 00       	push   $0x88
 804959f:	e9 d0 fe ff ff       	jmp    8049474 <clock_gettime@plt-0x10>

080495a4 <timer_delete@plt>:
 80495a4:	ff 25 20 77 05 08    	jmp    *0x8057720
 80495aa:	68 90 00 00 00       	push   $0x90
 80495af:	e9 c0 fe ff ff       	jmp    8049474 <clock_gettime@plt-0x10>

080495b4 <malloc@plt>:
 80495b4:	ff 25 24 77 05 08    	jmp    *0x8057724
 80495ba:	68 98 00 00 00       	push   $0x98
 80495bf:	e9 b0 fe ff ff       	jmp    8049474 <clock_gettime@plt-0x10>

080495c4 <isatty@plt>:
 80495c4:	ff 25 28 77 05 08    	jmp    *0x8057728
 80495ca:	68 a0 00 00 00       	push   $0xa0
 80495cf:	e9 a0 fe ff ff       	jmp    8049474 <clock_gettime@plt-0x10>

080495d4 <rmdir@plt>:
 80495d4:	ff 25 2c 77 05 08    	jmp    *0x805772c
 80495da:	68 a8 00 00 00       	push   $0xa8
 80495df:	e9 90 fe ff ff       	jmp    8049474 <clock_gettime@plt-0x10>

080495e4 <setgroups@plt>:
 80495e4:	ff 25 30 77 05 08    	jmp    *0x8057730
 80495ea:	68 b0 00 00 00       	push   $0xb0
 80495ef:	e9 80 fe ff ff       	jmp    8049474 <clock_gettime@plt-0x10>

080495f4 <ftruncate@plt>:
 80495f4:	ff 25 34 77 05 08    	jmp    *0x8057734
 80495fa:	68 b8 00 00 00       	push   $0xb8
 80495ff:	e9 70 fe ff ff       	jmp    8049474 <clock_gettime@plt-0x10>

08049604 <mmap@plt>:
 8049604:	ff 25 38 77 05 08    	jmp    *0x8057738
 804960a:	68 c0 00 00 00       	push   $0xc0
 804960f:	e9 60 fe ff ff       	jmp    8049474 <clock_gettime@plt-0x10>

08049614 <strncasecmp@plt>:
 8049614:	ff 25 3c 77 05 08    	jmp    *0x805773c
 804961a:	68 c8 00 00 00       	push   $0xc8
 804961f:	e9 50 fe ff ff       	jmp    8049474 <clock_gettime@plt-0x10>

08049624 <abort@plt>:
 8049624:	ff 25 40 77 05 08    	jmp    *0x8057740
 804962a:	68 d0 00 00 00       	push   $0xd0
 804962f:	e9 40 fe ff ff       	jmp    8049474 <clock_gettime@plt-0x10>

08049634 <strtol@plt>:
 8049634:	ff 25 44 77 05 08    	jmp    *0x8057744
 804963a:	68 d8 00 00 00       	push   $0xd8
 804963f:	e9 30 fe ff ff       	jmp    8049474 <clock_gettime@plt-0x10>

08049644 <MsgSendPulse@plt>:
 8049644:	ff 25 48 77 05 08    	jmp    *0x8057748
 804964a:	68 e0 00 00 00       	push   $0xe0
 804964f:	e9 20 fe ff ff       	jmp    8049474 <clock_gettime@plt-0x10>

08049654 <strrchr@plt>:
 8049654:	ff 25 4c 77 05 08    	jmp    *0x805774c
 804965a:	68 e8 00 00 00       	push   $0xe8
 804965f:	e9 10 fe ff ff       	jmp    8049474 <clock_gettime@plt-0x10>

08049664 <calloc@plt>:
 8049664:	ff 25 50 77 05 08    	jmp    *0x8057750
 804966a:	68 f0 00 00 00       	push   $0xf0
 804966f:	e9 00 fe ff ff       	jmp    8049474 <clock_gettime@plt-0x10>

08049674 <write@plt>:
 8049674:	ff 25 54 77 05 08    	jmp    *0x8057754
 804967a:	68 f8 00 00 00       	push   $0xf8
 804967f:	e9 f0 fd ff ff       	jmp    8049474 <clock_gettime@plt-0x10>

08049684 <MsgError@plt>:
 8049684:	ff 25 58 77 05 08    	jmp    *0x8057758
 804968a:	68 00 01 00 00       	push   $0x100
 804968f:	e9 e0 fd ff ff       	jmp    8049474 <clock_gettime@plt-0x10>

08049694 <fstat@plt>:
 8049694:	ff 25 5c 77 05 08    	jmp    *0x805775c
 804969a:	68 08 01 00 00       	push   $0x108
 804969f:	e9 d0 fd ff ff       	jmp    8049474 <clock_gettime@plt-0x10>

080496a4 <fprintf@plt>:
 80496a4:	ff 25 60 77 05 08    	jmp    *0x8057760
 80496aa:	68 10 01 00 00       	push   $0x110
 80496af:	e9 c0 fd ff ff       	jmp    8049474 <clock_gettime@plt-0x10>

080496b4 <ConnectDetach@plt>:
 80496b4:	ff 25 64 77 05 08    	jmp    *0x8057764
 80496ba:	68 18 01 00 00       	push   $0x118
 80496bf:	e9 b0 fd ff ff       	jmp    8049474 <clock_gettime@plt-0x10>

080496c4 <__deregister_frame_info@plt>:
 80496c4:	ff 25 68 77 05 08    	jmp    *0x8057768
 80496ca:	68 20 01 00 00       	push   $0x120
 80496cf:	e9 a0 fd ff ff       	jmp    8049474 <clock_gettime@plt-0x10>

080496d4 <chdir@plt>:
 80496d4:	ff 25 6c 77 05 08    	jmp    *0x805776c
 80496da:	68 28 01 00 00       	push   $0x128
 80496df:	e9 90 fd ff ff       	jmp    8049474 <clock_gettime@plt-0x10>

080496e4 <memchr@plt>:
 80496e4:	ff 25 70 77 05 08    	jmp    *0x8057770
 80496ea:	68 30 01 00 00       	push   $0x130
 80496ef:	e9 80 fd ff ff       	jmp    8049474 <clock_gettime@plt-0x10>

080496f4 <wait@plt>:
 80496f4:	ff 25 74 77 05 08    	jmp    *0x8057774
 80496fa:	68 38 01 00 00       	push   $0x138
 80496ff:	e9 70 fd ff ff       	jmp    8049474 <clock_gettime@plt-0x10>

08049704 <__get_errno_ptr@plt>:
 8049704:	ff 25 78 77 05 08    	jmp    *0x8057778
 804970a:	68 40 01 00 00       	push   $0x140
 804970f:	e9 60 fd ff ff       	jmp    8049474 <clock_gettime@plt-0x10>

08049714 <ferror@plt>:
 8049714:	ff 25 7c 77 05 08    	jmp    *0x805777c
 804971a:	68 48 01 00 00       	push   $0x148
 804971f:	e9 50 fd ff ff       	jmp    8049474 <clock_gettime@plt-0x10>

08049724 <setgid@plt>:
 8049724:	ff 25 80 77 05 08    	jmp    *0x8057780
 804972a:	68 50 01 00 00       	push   $0x150
 804972f:	e9 40 fd ff ff       	jmp    8049474 <clock_gettime@plt-0x10>

08049734 <read@plt>:
 8049734:	ff 25 84 77 05 08    	jmp    *0x8057784
 804973a:	68 58 01 00 00       	push   $0x158
 804973f:	e9 30 fd ff ff       	jmp    8049474 <clock_gettime@plt-0x10>

08049744 <strncmp@plt>:
 8049744:	ff 25 88 77 05 08    	jmp    *0x8057788
 804974a:	68 60 01 00 00       	push   $0x160
 804974f:	e9 20 fd ff ff       	jmp    8049474 <clock_gettime@plt-0x10>

08049754 <strncpy@plt>:
 8049754:	ff 25 8c 77 05 08    	jmp    *0x805778c
 804975a:	68 68 01 00 00       	push   $0x168
 804975f:	e9 10 fd ff ff       	jmp    8049474 <clock_gettime@plt-0x10>

08049764 <unlink@plt>:
 8049764:	ff 25 90 77 05 08    	jmp    *0x8057790
 804976a:	68 70 01 00 00       	push   $0x170
 804976f:	e9 00 fd ff ff       	jmp    8049474 <clock_gettime@plt-0x10>

08049774 <accept@plt>:
 8049774:	ff 25 94 77 05 08    	jmp    *0x8057794
 804977a:	68 78 01 00 00       	push   $0x178
 804977f:	e9 f0 fc ff ff       	jmp    8049474 <clock_gettime@plt-0x10>

08049784 <strcasecmp@plt>:
 8049784:	ff 25 98 77 05 08    	jmp    *0x8057798
 804978a:	68 80 01 00 00       	push   $0x180
 804978f:	e9 e0 fc ff ff       	jmp    8049474 <clock_gettime@plt-0x10>

08049794 <getprio@plt>:
 8049794:	ff 25 9c 77 05 08    	jmp    *0x805779c
 804979a:	68 88 01 00 00       	push   $0x188
 804979f:	e9 d0 fc ff ff       	jmp    8049474 <clock_gettime@plt-0x10>

080497a4 <realloc@plt>:
 80497a4:	ff 25 a0 77 05 08    	jmp    *0x80577a0
 80497aa:	68 90 01 00 00       	push   $0x190
 80497af:	e9 c0 fc ff ff       	jmp    8049474 <clock_gettime@plt-0x10>

080497b4 <ConnectAttach@plt>:
 80497b4:	ff 25 a4 77 05 08    	jmp    *0x80577a4
 80497ba:	68 98 01 00 00       	push   $0x198
 80497bf:	e9 b0 fc ff ff       	jmp    8049474 <clock_gettime@plt-0x10>

080497c4 <fork@plt>:
 80497c4:	ff 25 a8 77 05 08    	jmp    *0x80577a8
 80497ca:	68 a0 01 00 00       	push   $0x1a0
 80497cf:	e9 a0 fc ff ff       	jmp    8049474 <clock_gettime@plt-0x10>

080497d4 <sscanf@plt>:
 80497d4:	ff 25 ac 77 05 08    	jmp    *0x80577ac
 80497da:	68 a8 01 00 00       	push   $0x1a8
 80497df:	e9 90 fc ff ff       	jmp    8049474 <clock_gettime@plt-0x10>

080497e4 <fread@plt>:
 80497e4:	ff 25 b0 77 05 08    	jmp    *0x80577b0
 80497ea:	68 b0 01 00 00       	push   $0x1b0
 80497ef:	e9 80 fc ff ff       	jmp    8049474 <clock_gettime@plt-0x10>

080497f4 <MsgReceivePulse@plt>:
 80497f4:	ff 25 b4 77 05 08    	jmp    *0x80577b4
 80497fa:	68 b8 01 00 00       	push   $0x1b8
 80497ff:	e9 70 fc ff ff       	jmp    8049474 <clock_gettime@plt-0x10>

08049804 <strdup@plt>:
 8049804:	ff 25 b8 77 05 08    	jmp    *0x80577b8
 804980a:	68 c0 01 00 00       	push   $0x1c0
 804980f:	e9 60 fc ff ff       	jmp    8049474 <clock_gettime@plt-0x10>

08049814 <recv@plt>:
 8049814:	ff 25 bc 77 05 08    	jmp    *0x80577bc
 804981a:	68 c8 01 00 00       	push   $0x1c8
 804981f:	e9 50 fc ff ff       	jmp    8049474 <clock_gettime@plt-0x10>

08049824 <_init_libc@plt>:
 8049824:	ff 25 c0 77 05 08    	jmp    *0x80577c0
 804982a:	68 d0 01 00 00       	push   $0x1d0
 804982f:	e9 40 fc ff ff       	jmp    8049474 <clock_gettime@plt-0x10>

08049834 <fopen@plt>:
 8049834:	ff 25 c4 77 05 08    	jmp    *0x80577c4
 804983a:	68 d8 01 00 00       	push   $0x1d8
 804983f:	e9 30 fc ff ff       	jmp    8049474 <clock_gettime@plt-0x10>

08049844 <getopt@plt>:
 8049844:	ff 25 c8 77 05 08    	jmp    *0x80577c8
 804984a:	68 e0 01 00 00       	push   $0x1e0
 804984f:	e9 20 fc ff ff       	jmp    8049474 <clock_gettime@plt-0x10>

08049854 <memset@plt>:
 8049854:	ff 25 cc 77 05 08    	jmp    *0x80577cc
 804985a:	68 e8 01 00 00       	push   $0x1e8
 804985f:	e9 10 fc ff ff       	jmp    8049474 <clock_gettime@plt-0x10>

08049864 <ionotify@plt>:
 8049864:	ff 25 d0 77 05 08    	jmp    *0x80577d0
 804986a:	68 f0 01 00 00       	push   $0x1f0
 804986f:	e9 00 fc ff ff       	jmp    8049474 <clock_gettime@plt-0x10>

08049874 <clearerr@plt>:
 8049874:	ff 25 d4 77 05 08    	jmp    *0x80577d4
 804987a:	68 f8 01 00 00       	push   $0x1f8
 804987f:	e9 f0 fb ff ff       	jmp    8049474 <clock_gettime@plt-0x10>

08049884 <fclose@plt>:
 8049884:	ff 25 d8 77 05 08    	jmp    *0x80577d8
 804988a:	68 00 02 00 00       	push   $0x200
 804988f:	e9 e0 fb ff ff       	jmp    8049474 <clock_gettime@plt-0x10>

08049894 <ChannelCreate@plt>:
 8049894:	ff 25 dc 77 05 08    	jmp    *0x80577dc
 804989a:	68 08 02 00 00       	push   $0x208
 804989f:	e9 d0 fb ff ff       	jmp    8049474 <clock_gettime@plt-0x10>

080498a4 <MsgSendv@plt>:
 80498a4:	ff 25 e0 77 05 08    	jmp    *0x80577e0
 80498aa:	68 10 02 00 00       	push   $0x210
 80498af:	e9 c0 fb ff ff       	jmp    8049474 <clock_gettime@plt-0x10>

080498b4 <_fini_array@plt>:
 80498b4:	ff 25 e4 77 05 08    	jmp    *0x80577e4
 80498ba:	68 18 02 00 00       	push   $0x218
 80498bf:	e9 b0 fb ff ff       	jmp    8049474 <clock_gettime@plt-0x10>

080498c4 <shm_unlink@plt>:
 80498c4:	ff 25 e8 77 05 08    	jmp    *0x80577e8
 80498ca:	68 20 02 00 00       	push   $0x220
 80498cf:	e9 a0 fb ff ff       	jmp    8049474 <clock_gettime@plt-0x10>

080498d4 <strcmp@plt>:
 80498d4:	ff 25 ec 77 05 08    	jmp    *0x80577ec
 80498da:	68 28 02 00 00       	push   $0x228
 80498df:	e9 90 fb ff ff       	jmp    8049474 <clock_gettime@plt-0x10>

080498e4 <send@plt>:
 80498e4:	ff 25 f0 77 05 08    	jmp    *0x80577f0
 80498ea:	68 30 02 00 00       	push   $0x230
 80498ef:	e9 80 fb ff ff       	jmp    8049474 <clock_gettime@plt-0x10>

080498f4 <fgetc@plt>:
 80498f4:	ff 25 f4 77 05 08    	jmp    *0x80577f4
 80498fa:	68 38 02 00 00       	push   $0x238
 80498ff:	e9 70 fb ff ff       	jmp    8049474 <clock_gettime@plt-0x10>

08049904 <sprintf@plt>:
 8049904:	ff 25 f8 77 05 08    	jmp    *0x80577f8
 804990a:	68 40 02 00 00       	push   $0x240
 804990f:	e9 60 fb ff ff       	jmp    8049474 <clock_gettime@plt-0x10>

08049914 <atexit@plt>:
 8049914:	ff 25 fc 77 05 08    	jmp    *0x80577fc
 804991a:	68 48 02 00 00       	push   $0x248
 804991f:	e9 50 fb ff ff       	jmp    8049474 <clock_gettime@plt-0x10>

08049924 <MsgReceive@plt>:
 8049924:	ff 25 00 78 05 08    	jmp    *0x8057800
 804992a:	68 50 02 00 00       	push   $0x250
 804992f:	e9 40 fb ff ff       	jmp    8049474 <clock_gettime@plt-0x10>

08049934 <socket@plt>:
 8049934:	ff 25 04 78 05 08    	jmp    *0x8057804
 804993a:	68 58 02 00 00       	push   $0x258
 804993f:	e9 30 fb ff ff       	jmp    8049474 <clock_gettime@plt-0x10>

08049944 <stat@plt>:
 8049944:	ff 25 08 78 05 08    	jmp    *0x8057808
 804994a:	68 60 02 00 00       	push   $0x260
 804994f:	e9 20 fb ff ff       	jmp    8049474 <clock_gettime@plt-0x10>

08049954 <fwrite@plt>:
 8049954:	ff 25 0c 78 05 08    	jmp    *0x805780c
 804995a:	68 68 02 00 00       	push   $0x268
 804995f:	e9 10 fb ff ff       	jmp    8049474 <clock_gettime@plt-0x10>

08049964 <access@plt>:
 8049964:	ff 25 10 78 05 08    	jmp    *0x8057810
 804996a:	68 70 02 00 00       	push   $0x270
 804996f:	e9 00 fb ff ff       	jmp    8049474 <clock_gettime@plt-0x10>

08049974 <exit@plt>:
 8049974:	ff 25 14 78 05 08    	jmp    *0x8057814
 804997a:	68 78 02 00 00       	push   $0x278
 804997f:	e9 f0 fa ff ff       	jmp    8049474 <clock_gettime@plt-0x10>

08049984 <inet_ntop@plt>:
 8049984:	ff 25 18 78 05 08    	jmp    *0x8057818
 804998a:	68 80 02 00 00       	push   $0x280
 804998f:	e9 e0 fa ff ff       	jmp    8049474 <clock_gettime@plt-0x10>

08049994 <MsgRead@plt>:
 8049994:	ff 25 1c 78 05 08    	jmp    *0x805781c
 804999a:	68 88 02 00 00       	push   $0x288
 804999f:	e9 d0 fa ff ff       	jmp    8049474 <clock_gettime@plt-0x10>

080499a4 <fileno@plt>:
 80499a4:	ff 25 20 78 05 08    	jmp    *0x8057820
 80499aa:	68 90 02 00 00       	push   $0x290
 80499af:	e9 c0 fa ff ff       	jmp    8049474 <clock_gettime@plt-0x10>

080499b4 <listen@plt>:
 80499b4:	ff 25 24 78 05 08    	jmp    *0x8057824
 80499ba:	68 98 02 00 00       	push   $0x298
 80499bf:	e9 b0 fa ff ff       	jmp    8049474 <clock_gettime@plt-0x10>

080499c4 <strlen@plt>:
 80499c4:	ff 25 28 78 05 08    	jmp    *0x8057828
 80499ca:	68 a0 02 00 00       	push   $0x2a0
 80499cf:	e9 a0 fa ff ff       	jmp    8049474 <clock_gettime@plt-0x10>

080499d4 <open@plt>:
 80499d4:	ff 25 2c 78 05 08    	jmp    *0x805782c
 80499da:	68 a8 02 00 00       	push   $0x2a8
 80499df:	e9 90 fa ff ff       	jmp    8049474 <clock_gettime@plt-0x10>

080499e4 <strchr@plt>:
 80499e4:	ff 25 30 78 05 08    	jmp    *0x8057830
 80499ea:	68 b0 02 00 00       	push   $0x2b0
 80499ef:	e9 80 fa ff ff       	jmp    8049474 <clock_gettime@plt-0x10>

080499f4 <MsgReply@plt>:
 80499f4:	ff 25 34 78 05 08    	jmp    *0x8057834
 80499fa:	68 b8 02 00 00       	push   $0x2b8
 80499ff:	e9 70 fa ff ff       	jmp    8049474 <clock_gettime@plt-0x10>

08049a04 <setuid@plt>:
 8049a04:	ff 25 38 78 05 08    	jmp    *0x8057838
 8049a0a:	68 c0 02 00 00       	push   $0x2c0
 8049a0f:	e9 60 fa ff ff       	jmp    8049474 <clock_gettime@plt-0x10>

08049a14 <timer_settime@plt>:
 8049a14:	ff 25 3c 78 05 08    	jmp    *0x805783c
 8049a1a:	68 c8 02 00 00       	push   $0x2c8
 8049a1f:	e9 50 fa ff ff       	jmp    8049474 <clock_gettime@plt-0x10>

08049a24 <mkdir@plt>:
 8049a24:	ff 25 40 78 05 08    	jmp    *0x8057840
 8049a2a:	68 d0 02 00 00       	push   $0x2d0
 8049a2f:	e9 40 fa ff ff       	jmp    8049474 <clock_gettime@plt-0x10>

08049a34 <__register_frame_info@plt>:
 8049a34:	ff 25 44 78 05 08    	jmp    *0x8057844
 8049a3a:	68 d8 02 00 00       	push   $0x2d8
 8049a3f:	e9 30 fa ff ff       	jmp    8049474 <clock_gettime@plt-0x10>

08049a44 <close@plt>:
 8049a44:	ff 25 48 78 05 08    	jmp    *0x8057848
 8049a4a:	68 e0 02 00 00       	push   $0x2e0
 8049a4f:	e9 20 fa ff ff       	jmp    8049474 <clock_gettime@plt-0x10>

08049a54 <free@plt>:
 8049a54:	ff 25 4c 78 05 08    	jmp    *0x805784c
 8049a5a:	68 e8 02 00 00       	push   $0x2e8
 8049a5f:	e9 10 fa ff ff       	jmp    8049474 <clock_gettime@plt-0x10>

Disassembly of section .text:

08049a70 <_btext>:
 8049a70:	4e                   	dec    %esi
 8049a71:	49                   	dec    %ecx
 8049a72:	41                   	inc    %ecx
 8049a73:	4d                   	dec    %ebp
 8049a74:	20 9c 04 08 89 d3 8b 	and    %bl,-0x742c76f8(%esp,%eax,1)
 8049a7b:	34 24                	xor    $0x24,%al
 8049a7d:	8d 4c 24 04          	lea    0x4(%esp),%ecx
 8049a81:	8d 04 b1             	lea    (%ecx,%esi,4),%eax
 8049a84:	8d 78 04             	lea    0x4(%eax),%edi
 8049a87:	8d 50 08             	lea    0x8(%eax),%edx
 8049a8a:	83 78 04 00          	cmpl   $0x0,0x4(%eax)
 8049a8e:	74 09                	je     8049a99 <_btext+0x29>
 8049a90:	8b 02                	mov    (%edx),%eax
 8049a92:	83 c2 04             	add    $0x4,%edx
 8049a95:	85 c0                	test   %eax,%eax
 8049a97:	75 f7                	jne    8049a90 <_btext+0x20>
 8049a99:	53                   	push   %ebx
 8049a9a:	52                   	push   %edx
 8049a9b:	57                   	push   %edi
 8049a9c:	51                   	push   %ecx
 8049a9d:	56                   	push   %esi
 8049a9e:	e8 81 fd ff ff       	call   8049824 <_init_libc@plt>
 8049aa3:	68 c0 75 05 08       	push   $0x80575c0
 8049aa8:	68 c0 75 05 08       	push   $0x80575c0
 8049aad:	e8 a2 fa ff ff       	call   8049554 <_preinit_array@plt>
 8049ab2:	83 c4 08             	add    $0x8,%esp
 8049ab5:	68 c0 4a 05 08       	push   $0x8054ac0
 8049aba:	e8 55 fe ff ff       	call   8049914 <atexit@plt>
 8049abf:	83 c4 04             	add    $0x4,%esp
 8049ac2:	68 c0 75 05 08       	push   $0x80575c0
 8049ac7:	68 c0 75 05 08       	push   $0x80575c0
 8049acc:	e8 e3 fd ff ff       	call   80498b4 <_fini_array@plt>
 8049ad1:	83 c4 08             	add    $0x8,%esp
 8049ad4:	e8 8b f9 ff ff       	call   8049464 <clock_gettime@plt-0x20>
 8049ad9:	68 c0 75 05 08       	push   $0x80575c0
 8049ade:	68 c0 75 05 08       	push   $0x80575c0
 8049ae3:	e8 dc f9 ff ff       	call   80494c4 <_init_array@plt>
 8049ae8:	83 c4 08             	add    $0x8,%esp
 8049aeb:	c7 05 f0 78 05 08 00 	movl   $0x0,0x80578f0
 8049af2:	00 00 00 
 8049af5:	e8 26 01 00 00       	call   8049c20 <main>
 8049afa:	50                   	push   %eax
 8049afb:	e8 74 fe ff ff       	call   8049974 <exit@plt>
 8049b00:	cc                   	int3   
 8049b01:	90                   	nop
 8049b02:	90                   	nop
 8049b03:	90                   	nop
 8049b04:	90                   	nop
 8049b05:	90                   	nop
 8049b06:	90                   	nop
 8049b07:	90                   	nop
 8049b08:	90                   	nop
 8049b09:	90                   	nop
 8049b0a:	90                   	nop
 8049b0b:	90                   	nop
 8049b0c:	90                   	nop
 8049b0d:	90                   	nop
 8049b0e:	90                   	nop
 8049b0f:	90                   	nop
 8049b10:	55                   	push   %ebp
 8049b11:	89 e5                	mov    %esp,%ebp
 8049b13:	56                   	push   %esi
 8049b14:	53                   	push   %ebx
 8049b15:	e8 00 00 00 00       	call   8049b1a <_btext+0xaa>
 8049b1a:	5b                   	pop    %ebx
 8049b1b:	81 c3 b2 db 00 00    	add    $0xdbb2,%ebx
 8049b21:	80 bb 04 03 00 00 00 	cmpb   $0x0,0x304(%ebx)
 8049b28:	0f 85 7d 00 00 00    	jne    8049bab <_btext+0x13b>
 8049b2e:	8b 8b 84 01 00 00    	mov    0x184(%ebx),%ecx
 8049b34:	85 c9                	test   %ecx,%ecx
 8049b36:	74 12                	je     8049b4a <_btext+0xda>
 8049b38:	83 ec 0c             	sub    $0xc,%esp
 8049b3b:	8b 93 d8 ff ff ff    	mov    -0x28(%ebx),%edx
 8049b41:	52                   	push   %edx
 8049b42:	e8 3d fa ff ff       	call   8049584 <__cxa_finalize@plt>
 8049b47:	83 c4 10             	add    $0x10,%esp
 8049b4a:	8b 83 08 03 00 00    	mov    0x308(%ebx),%eax
 8049b50:	8d b3 00 ff ff ff    	lea    -0x100(%ebx),%esi
 8049b56:	8d 93 fc fe ff ff    	lea    -0x104(%ebx),%edx
 8049b5c:	29 d6                	sub    %edx,%esi
 8049b5e:	c1 fe 02             	sar    $0x2,%esi
 8049b61:	4e                   	dec    %esi
 8049b62:	39 f0                	cmp    %esi,%eax
 8049b64:	73 22                	jae    8049b88 <_btext+0x118>
 8049b66:	8d 76 00             	lea    0x0(%esi),%esi
 8049b69:	8d bc 27 00 00 00 00 	lea    0x0(%edi,%eiz,1),%edi
 8049b70:	40                   	inc    %eax
 8049b71:	89 83 08 03 00 00    	mov    %eax,0x308(%ebx)
 8049b77:	ff 94 83 fc fe ff ff 	call   *-0x104(%ebx,%eax,4)
 8049b7e:	8b 83 08 03 00 00    	mov    0x308(%ebx),%eax
 8049b84:	39 f0                	cmp    %esi,%eax
 8049b86:	72 e8                	jb     8049b70 <_btext+0x100>
 8049b88:	8b 83 88 01 00 00    	mov    0x188(%ebx),%eax
 8049b8e:	85 c0                	test   %eax,%eax
 8049b90:	74 12                	je     8049ba4 <_btext+0x134>
 8049b92:	83 ec 0c             	sub    $0xc,%esp
 8049b95:	8d 83 98 ee ff ff    	lea    -0x1168(%ebx),%eax
 8049b9b:	50                   	push   %eax
 8049b9c:	e8 23 fb ff ff       	call   80496c4 <__deregister_frame_info@plt>
 8049ba1:	83 c4 10             	add    $0x10,%esp
 8049ba4:	c6 83 04 03 00 00 01 	movb   $0x1,0x304(%ebx)
 8049bab:	8d 65 f8             	lea    -0x8(%ebp),%esp
 8049bae:	5b                   	pop    %ebx
 8049baf:	5e                   	pop    %esi
 8049bb0:	5d                   	pop    %ebp
 8049bb1:	c3                   	ret    
 8049bb2:	8d b4 26 00 00 00 00 	lea    0x0(%esi,%eiz,1),%esi
 8049bb9:	8d bc 27 00 00 00 00 	lea    0x0(%edi,%eiz,1),%edi
 8049bc0:	55                   	push   %ebp
 8049bc1:	89 e5                	mov    %esp,%ebp
 8049bc3:	53                   	push   %ebx
 8049bc4:	83 ec 04             	sub    $0x4,%esp
 8049bc7:	e8 00 00 00 00       	call   8049bcc <_btext+0x15c>
 8049bcc:	5b                   	pop    %ebx
 8049bcd:	81 c3 00 db 00 00    	add    $0xdb00,%ebx
 8049bd3:	8b 93 90 01 00 00    	mov    0x190(%ebx),%edx
 8049bd9:	85 d2                	test   %edx,%edx
 8049bdb:	74 19                	je     8049bf6 <_btext+0x186>
 8049bdd:	83 ec 08             	sub    $0x8,%esp
 8049be0:	8d 83 0c 03 00 00    	lea    0x30c(%ebx),%eax
 8049be6:	50                   	push   %eax
 8049be7:	8d 83 98 ee ff ff    	lea    -0x1168(%ebx),%eax
 8049bed:	50                   	push   %eax
 8049bee:	e8 41 fe ff ff       	call   8049a34 <__register_frame_info@plt>
 8049bf3:	83 c4 10             	add    $0x10,%esp
 8049bf6:	8b 83 04 ff ff ff    	mov    -0xfc(%ebx),%eax
 8049bfc:	85 c0                	test   %eax,%eax
 8049bfe:	74 19                	je     8049c19 <_btext+0x1a9>
 8049c00:	8b 83 8c 01 00 00    	mov    0x18c(%ebx),%eax
 8049c06:	85 c0                	test   %eax,%eax
 8049c08:	74 0f                	je     8049c19 <_btext+0x1a9>
 8049c0a:	83 ec 0c             	sub    $0xc,%esp
 8049c0d:	8d 93 04 ff ff ff    	lea    -0xfc(%ebx),%edx
 8049c13:	52                   	push   %edx
 8049c14:	ff d0                	call   *%eax
 8049c16:	83 c4 10             	add    $0x10,%esp
 8049c19:	8b 5d fc             	mov    -0x4(%ebp),%ebx
 8049c1c:	c9                   	leave  
 8049c1d:	c3                   	ret    
 8049c1e:	90                   	nop
 8049c1f:	90                   	nop

08049c20 <main>:
 8049c20:	55                   	push   %ebp
 8049c21:	89 e5                	mov    %esp,%ebp
 8049c23:	83 e4 f0             	and    $0xfffffff0,%esp
 8049c26:	57                   	push   %edi
 8049c27:	31 ff                	xor    %edi,%edi
 8049c29:	56                   	push   %esi
 8049c2a:	53                   	push   %ebx
 8049c2b:	83 ec 14             	sub    $0x14,%esp
 8049c2e:	8b 75 08             	mov    0x8(%ebp),%esi
 8049c31:	8b 5d 0c             	mov    0xc(%ebp),%ebx
 8049c34:	c7 44 24 08 e0 4a 05 	movl   $0x8054ae0,0x8(%esp)
 8049c3b:	08 
 8049c3c:	89 5c 24 04          	mov    %ebx,0x4(%esp)
 8049c40:	89 34 24             	mov    %esi,(%esp)
 8049c43:	e8 fc fb ff ff       	call   8049844 <getopt@plt>
 8049c48:	83 f8 ff             	cmp    $0xffffffff,%eax
 8049c4b:	74 53                	je     8049ca0 <main+0x80>
 8049c4d:	83 f8 3f             	cmp    $0x3f,%eax
 8049c50:	74 1e                	je     8049c70 <main+0x50>
 8049c52:	83 f8 63             	cmp    $0x63,%eax
 8049c55:	75 dd                	jne    8049c34 <main+0x14>
 8049c57:	a1 08 79 05 08       	mov    0x8057908,%eax
 8049c5c:	c7 44 24 04 11 4e 05 	movl   $0x8054e11,0x4(%esp)
 8049c63:	08 
 8049c64:	89 04 24             	mov    %eax,(%esp)
 8049c67:	e8 c8 fb ff ff       	call   8049834 <fopen@plt>
 8049c6c:	89 c7                	mov    %eax,%edi
 8049c6e:	eb c4                	jmp    8049c34 <main+0x14>
 8049c70:	8b 03                	mov    (%ebx),%eax
 8049c72:	c7 44 24 04 1b 4b 05 	movl   $0x8054b1b,0x4(%esp)
 8049c79:	08 
 8049c7a:	c7 04 24 80 79 05 08 	movl   $0x8057980,(%esp)
 8049c81:	89 44 24 08          	mov    %eax,0x8(%esp)
 8049c85:	e8 1a fa ff ff       	call   80496a4 <fprintf@plt>
 8049c8a:	83 c4 14             	add    $0x14,%esp
 8049c8d:	31 c0                	xor    %eax,%eax
 8049c8f:	5b                   	pop    %ebx
 8049c90:	5e                   	pop    %esi
 8049c91:	5f                   	pop    %edi
 8049c92:	89 ec                	mov    %ebp,%esp
 8049c94:	5d                   	pop    %ebp
 8049c95:	c3                   	ret    
 8049c96:	8d 76 00             	lea    0x0(%esi),%esi
 8049c99:	8d bc 27 00 00 00 00 	lea    0x0(%edi,%eiz,1),%edi
 8049ca0:	85 ff                	test   %edi,%edi
 8049ca2:	74 cc                	je     8049c70 <main+0x50>
 8049ca4:	89 3c 24             	mov    %edi,(%esp)
 8049ca7:	e8 04 39 00 00       	call   804d5b0 <main+0x3990>
 8049cac:	89 3c 24             	mov    %edi,(%esp)
 8049caf:	a3 40 8e 05 08       	mov    %eax,0x8058e40
 8049cb4:	e8 cb fb ff ff       	call   8049884 <fclose@plt>
 8049cb9:	a1 40 8e 05 08       	mov    0x8058e40,%eax
 8049cbe:	85 c0                	test   %eax,%eax
 8049cc0:	74 39                	je     8049cfb <main+0xdb>
 8049cc2:	e8 69 00 00 00       	call   8049d30 <main+0x110>
 8049cc7:	85 c0                	test   %eax,%eax
 8049cc9:	74 0a                	je     8049cd5 <main+0xb5>
 8049ccb:	89 04 24             	mov    %eax,(%esp)
 8049cce:	e8 1d 04 00 00       	call   804a0f0 <main+0x4d0>
 8049cd3:	eb b5                	jmp    8049c8a <main+0x6a>
 8049cd5:	c7 44 24 0c 80 79 05 	movl   $0x8057980,0xc(%esp)
 8049cdc:	08 
 8049cdd:	c7 44 24 08 1d 00 00 	movl   $0x1d,0x8(%esp)
 8049ce4:	00 
 8049ce5:	c7 44 24 04 01 00 00 	movl   $0x1,0x4(%esp)
 8049cec:	00 
 8049ced:	c7 04 24 fd 4a 05 08 	movl   $0x8054afd,(%esp)
 8049cf4:	e8 5b fc ff ff       	call   8049954 <fwrite@plt>
 8049cf9:	eb 8f                	jmp    8049c8a <main+0x6a>
 8049cfb:	c7 44 24 0c 80 79 05 	movl   $0x8057980,0xc(%esp)
 8049d02:	08 
 8049d03:	c7 44 24 08 19 00 00 	movl   $0x19,0x8(%esp)
 8049d0a:	00 
 8049d0b:	c7 44 24 04 01 00 00 	movl   $0x1,0x4(%esp)
 8049d12:	00 
 8049d13:	c7 04 24 e3 4a 05 08 	movl   $0x8054ae3,(%esp)
 8049d1a:	e8 35 fc ff ff       	call   8049954 <fwrite@plt>
 8049d1f:	e9 66 ff ff ff       	jmp    8049c8a <main+0x6a>
 8049d24:	90                   	nop
 8049d25:	90                   	nop
 8049d26:	90                   	nop
 8049d27:	90                   	nop
 8049d28:	90                   	nop
 8049d29:	90                   	nop
 8049d2a:	90                   	nop
 8049d2b:	90                   	nop
 8049d2c:	90                   	nop
 8049d2d:	90                   	nop
 8049d2e:	90                   	nop
 8049d2f:	90                   	nop
 8049d30:	55                   	push   %ebp
 8049d31:	89 e5                	mov    %esp,%ebp
 8049d33:	83 ec 28             	sub    $0x28,%esp
 8049d36:	89 5d f8             	mov    %ebx,-0x8(%ebp)
 8049d39:	89 75 fc             	mov    %esi,-0x4(%ebp)
 8049d3c:	c7 44 24 04 18 00 00 	movl   $0x18,0x4(%esp)
 8049d43:	00 
 8049d44:	c7 04 24 01 00 00 00 	movl   $0x1,(%esp)
 8049d4b:	e8 14 f9 ff ff       	call   8049664 <calloc@plt>
 8049d50:	85 c0                	test   %eax,%eax
 8049d52:	89 c3                	mov    %eax,%ebx
 8049d54:	89 c6                	mov    %eax,%esi
 8049d56:	75 18                	jne    8049d70 <main+0x150>
 8049d58:	89 f0                	mov    %esi,%eax
 8049d5a:	8b 5d f8             	mov    -0x8(%ebp),%ebx
 8049d5d:	8b 75 fc             	mov    -0x4(%ebp),%esi
 8049d60:	89 ec                	mov    %ebp,%esp
 8049d62:	5d                   	pop    %ebp
 8049d63:	c3                   	ret    
 8049d64:	8d b6 00 00 00 00    	lea    0x0(%esi),%esi
 8049d6a:	8d bf 00 00 00 00    	lea    0x0(%edi),%edi
 8049d70:	c7 44 24 08 01 00 00 	movl   $0x1,0x8(%esp)
 8049d77:	00 
 8049d78:	c7 44 24 04 35 4b 05 	movl   $0x8054b35,0x4(%esp)
 8049d7f:	08 
 8049d80:	a1 40 8e 05 08       	mov    0x8058e40,%eax
 8049d85:	89 04 24             	mov    %eax,(%esp)
 8049d88:	e8 63 37 00 00       	call   804d4f0 <main+0x38d0>
 8049d8d:	89 43 04             	mov    %eax,0x4(%ebx)
 8049d90:	c7 44 24 04 10 00 00 	movl   $0x10,0x4(%esp)
 8049d97:	00 
 8049d98:	89 04 24             	mov    %eax,(%esp)
 8049d9b:	e8 c4 f8 ff ff       	call   8049664 <calloc@plt>
 8049da0:	85 c0                	test   %eax,%eax
 8049da2:	89 43 08             	mov    %eax,0x8(%ebx)
 8049da5:	75 19                	jne    8049dc0 <main+0x1a0>
 8049da7:	31 f6                	xor    %esi,%esi
 8049da9:	8b 5d f8             	mov    -0x8(%ebp),%ebx
 8049dac:	89 f0                	mov    %esi,%eax
 8049dae:	8b 75 fc             	mov    -0x4(%ebp),%esi
 8049db1:	89 ec                	mov    %ebp,%esp
 8049db3:	5d                   	pop    %ebp
 8049db4:	c3                   	ret    
 8049db5:	8d 74 26 00          	lea    0x0(%esi,%eiz,1),%esi
 8049db9:	8d bc 27 00 00 00 00 	lea    0x0(%edi,%eiz,1),%edi
 8049dc0:	8b 53 04             	mov    0x4(%ebx),%edx
 8049dc3:	85 d2                	test   %edx,%edx
 8049dc5:	74 20                	je     8049de7 <main+0x1c7>
 8049dc7:	31 d2                	xor    %edx,%edx
 8049dc9:	eb 08                	jmp    8049dd3 <main+0x1b3>
 8049dcb:	90                   	nop
 8049dcc:	8d 74 26 00          	lea    0x0(%esi,%eiz,1),%esi
 8049dd0:	8b 43 08             	mov    0x8(%ebx),%eax
 8049dd3:	89 d1                	mov    %edx,%ecx
 8049dd5:	83 c2 01             	add    $0x1,%edx
 8049dd8:	c1 e1 04             	shl    $0x4,%ecx
 8049ddb:	c7 04 01 01 00 00 00 	movl   $0x1,(%ecx,%eax,1)
 8049de2:	39 53 04             	cmp    %edx,0x4(%ebx)
 8049de5:	77 e9                	ja     8049dd0 <main+0x1b0>
 8049de7:	c7 04 24 00 00 00 00 	movl   $0x0,(%esp)
 8049dee:	e8 a1 fa ff ff       	call   8049894 <ChannelCreate@plt>
 8049df3:	83 f8 ff             	cmp    $0xffffffff,%eax
 8049df6:	89 03                	mov    %eax,(%ebx)
 8049df8:	74 ad                	je     8049da7 <main+0x187>
 8049dfa:	c7 44 24 08 00 00 08 	movl   $0x80000,0x8(%esp)
 8049e01:	00 
 8049e02:	c7 44 24 04 41 4b 05 	movl   $0x8054b41,0x4(%esp)
 8049e09:	08 
 8049e0a:	a1 40 8e 05 08       	mov    0x8058e40,%eax
 8049e0f:	89 04 24             	mov    %eax,(%esp)
 8049e12:	e8 d9 36 00 00       	call   804d4f0 <main+0x38d0>
 8049e17:	a3 3c 8e 05 08       	mov    %eax,0x8058e3c
 8049e1c:	c7 44 24 08 80 01 00 	movl   $0x180,0x8(%esp)
 8049e23:	00 
 8049e24:	c7 44 24 04 02 03 00 	movl   $0x302,0x4(%esp)
 8049e2b:	00 
 8049e2c:	c7 04 24 4a 4b 05 08 	movl   $0x8054b4a,(%esp)
 8049e33:	e8 dc f6 ff ff       	call   8049514 <shm_open@plt>
 8049e38:	83 f8 ff             	cmp    $0xffffffff,%eax
 8049e3b:	89 43 14             	mov    %eax,0x14(%ebx)
 8049e3e:	0f 84 63 ff ff ff    	je     8049da7 <main+0x187>
 8049e44:	8b 15 3c 8e 05 08    	mov    0x8058e3c,%edx
 8049e4a:	89 04 24             	mov    %eax,(%esp)
 8049e4d:	89 54 24 04          	mov    %edx,0x4(%esp)
 8049e51:	e8 9e f7 ff ff       	call   80495f4 <ftruncate@plt>
 8049e56:	83 f8 ff             	cmp    $0xffffffff,%eax
 8049e59:	0f 84 48 ff ff ff    	je     8049da7 <main+0x187>
 8049e5f:	c7 44 24 14 00 00 00 	movl   $0x0,0x14(%esp)
 8049e66:	00 
 8049e67:	8b 43 14             	mov    0x14(%ebx),%eax
 8049e6a:	c7 44 24 0c 01 00 00 	movl   $0x1,0xc(%esp)
 8049e71:	00 
 8049e72:	c7 44 24 08 00 03 00 	movl   $0x300,0x8(%esp)
 8049e79:	00 
 8049e7a:	89 44 24 10          	mov    %eax,0x10(%esp)
 8049e7e:	a1 3c 8e 05 08       	mov    0x8058e3c,%eax
 8049e83:	c7 04 24 00 00 00 00 	movl   $0x0,(%esp)
 8049e8a:	89 44 24 04          	mov    %eax,0x4(%esp)
 8049e8e:	e8 71 f7 ff ff       	call   8049604 <mmap@plt>
 8049e93:	83 f8 ff             	cmp    $0xffffffff,%eax
 8049e96:	a3 44 8e 05 08       	mov    %eax,0x8058e44
 8049e9b:	0f 84 06 ff ff ff    	je     8049da7 <main+0x187>
 8049ea1:	8b 43 14             	mov    0x14(%ebx),%eax
 8049ea4:	89 04 24             	mov    %eax,(%esp)
 8049ea7:	e8 98 fb ff ff       	call   8049a44 <close@plt>
 8049eac:	c7 44 24 08 00 00 00 	movl   $0x0,0x8(%esp)
 8049eb3:	00 
 8049eb4:	c7 44 24 04 00 00 00 	movl   $0x0,0x4(%esp)
 8049ebb:	00 
 8049ebc:	c7 04 24 4a 4b 05 08 	movl   $0x8054b4a,(%esp)
 8049ec3:	e8 4c f6 ff ff       	call   8049514 <shm_open@plt>
 8049ec8:	83 f8 ff             	cmp    $0xffffffff,%eax
 8049ecb:	89 43 14             	mov    %eax,0x14(%ebx)
 8049ece:	0f 84 d3 fe ff ff    	je     8049da7 <main+0x187>
 8049ed4:	c7 04 24 4a 4b 05 08 	movl   $0x8054b4a,(%esp)
 8049edb:	e8 e4 f9 ff ff       	call   80498c4 <shm_unlink@plt>
 8049ee0:	e9 73 fe ff ff       	jmp    8049d58 <main+0x138>
 8049ee5:	8d 74 26 00          	lea    0x0(%esi,%eiz,1),%esi
 8049ee9:	8d bc 27 00 00 00 00 	lea    0x0(%edi,%eiz,1),%edi
 8049ef0:	55                   	push   %ebp
 8049ef1:	89 e5                	mov    %esp,%ebp
 8049ef3:	57                   	push   %edi
 8049ef4:	56                   	push   %esi
 8049ef5:	89 c6                	mov    %eax,%esi
 8049ef7:	53                   	push   %ebx
 8049ef8:	83 ec 4c             	sub    $0x4c,%esp
 8049efb:	8b 58 04             	mov    0x4(%eax),%ebx
 8049efe:	85 db                	test   %ebx,%ebx
 8049f00:	0f 84 8b 00 00 00    	je     8049f91 <main+0x371>
 8049f06:	31 db                	xor    %ebx,%ebx
 8049f08:	eb 0e                	jmp    8049f18 <main+0x2f8>
 8049f0a:	8d b6 00 00 00 00    	lea    0x0(%esi),%esi
 8049f10:	83 c3 01             	add    $0x1,%ebx
 8049f13:	39 5e 04             	cmp    %ebx,0x4(%esi)
 8049f16:	76 79                	jbe    8049f91 <main+0x371>
 8049f18:	8b 46 08             	mov    0x8(%esi),%eax
 8049f1b:	89 df                	mov    %ebx,%edi
 8049f1d:	c1 e7 04             	shl    $0x4,%edi
 8049f20:	01 f8                	add    %edi,%eax
 8049f22:	8b 08                	mov    (%eax),%ecx
 8049f24:	85 c9                	test   %ecx,%ecx
 8049f26:	74 e8                	je     8049f10 <main+0x2f0>
 8049f28:	c7 00 00 00 00 00    	movl   $0x0,(%eax)
 8049f2e:	8b 46 10             	mov    0x10(%esi),%eax
 8049f31:	89 45 d0             	mov    %eax,-0x30(%ebp)
 8049f34:	8b 46 0c             	mov    0xc(%esi),%eax
 8049f37:	89 45 d4             	mov    %eax,-0x2c(%ebp)
 8049f3a:	e8 85 f8 ff ff       	call   80497c4 <fork@plt>
 8049f3f:	85 c0                	test   %eax,%eax
 8049f41:	74 67                	je     8049faa <main+0x38a>
 8049f43:	83 f8 ff             	cmp    $0xffffffff,%eax
 8049f46:	74 58                	je     8049fa0 <main+0x380>
 8049f48:	8b 56 08             	mov    0x8(%esi),%edx
 8049f4b:	83 c3 01             	add    $0x1,%ebx
 8049f4e:	89 44 3a 04          	mov    %eax,0x4(%edx,%edi,1)
 8049f52:	8d 45 dc             	lea    -0x24(%ebp),%eax
 8049f55:	01 d7                	add    %edx,%edi
 8049f57:	89 44 24 04          	mov    %eax,0x4(%esp)
 8049f5b:	c7 04 24 02 00 00 00 	movl   $0x2,(%esp)
 8049f62:	e8 1d f5 ff ff       	call   8049484 <clock_gettime@plt>
 8049f67:	8b 4d e0             	mov    -0x20(%ebp),%ecx
 8049f6a:	b8 83 de 1b 43       	mov    $0x431bde83,%eax
 8049f6f:	c7 47 0c 00 00 00 00 	movl   $0x0,0xc(%edi)
 8049f76:	f7 e9                	imul   %ecx
 8049f78:	69 45 dc e8 03 00 00 	imul   $0x3e8,-0x24(%ebp),%eax
 8049f7f:	c1 f9 1f             	sar    $0x1f,%ecx
 8049f82:	c1 fa 12             	sar    $0x12,%edx
 8049f85:	29 ca                	sub    %ecx,%edx
 8049f87:	01 c2                	add    %eax,%edx
 8049f89:	39 5e 04             	cmp    %ebx,0x4(%esi)
 8049f8c:	89 57 08             	mov    %edx,0x8(%edi)
 8049f8f:	77 87                	ja     8049f18 <main+0x2f8>
 8049f91:	b8 01 00 00 00       	mov    $0x1,%eax
 8049f96:	eb 0a                	jmp    8049fa2 <main+0x382>
 8049f98:	90                   	nop
 8049f99:	8d b4 26 00 00 00 00 	lea    0x0(%esi,%eiz,1),%esi
 8049fa0:	31 c0                	xor    %eax,%eax
 8049fa2:	83 c4 4c             	add    $0x4c,%esp
 8049fa5:	5b                   	pop    %ebx
 8049fa6:	5e                   	pop    %esi
 8049fa7:	5f                   	pop    %edi
 8049fa8:	5d                   	pop    %ebp
 8049fa9:	c3                   	ret    
 8049faa:	a1 3c 8e 05 08       	mov    0x8058e3c,%eax
 8049faf:	89 44 24 04          	mov    %eax,0x4(%esp)
 8049fb3:	a1 44 8e 05 08       	mov    0x8058e44,%eax
 8049fb8:	89 04 24             	mov    %eax,(%esp)
 8049fbb:	e8 24 f5 ff ff       	call   80494e4 <munmap@plt>
 8049fc0:	c7 44 24 14 00 00 00 	movl   $0x0,0x14(%esp)
 8049fc7:	00 
 8049fc8:	8b 46 14             	mov    0x14(%esi),%eax
 8049fcb:	c7 44 24 0c 11 00 00 	movl   $0x11,0xc(%esp)
 8049fd2:	00 
 8049fd3:	c7 44 24 08 00 01 00 	movl   $0x100,0x8(%esp)
 8049fda:	00 
 8049fdb:	89 44 24 10          	mov    %eax,0x10(%esp)
 8049fdf:	a1 3c 8e 05 08       	mov    0x8058e3c,%eax
 8049fe4:	89 44 24 04          	mov    %eax,0x4(%esp)
 8049fe8:	a1 44 8e 05 08       	mov    0x8058e44,%eax
 8049fed:	89 04 24             	mov    %eax,(%esp)
 8049ff0:	e8 0f f6 ff ff       	call   8049604 <mmap@plt>
 8049ff5:	3b 05 44 8e 05 08    	cmp    0x8058e44,%eax
 8049ffb:	74 0c                	je     804a009 <main+0x3e9>
 8049ffd:	c7 04 24 00 00 00 00 	movl   $0x0,(%esp)
 804a004:	e8 6b f9 ff ff       	call   8049974 <exit@plt>
 804a009:	a1 40 8e 05 08       	mov    0x8058e40,%eax
 804a00e:	c7 44 24 08 63 00 00 	movl   $0x63,0x8(%esp)
 804a015:	00 
 804a016:	c7 44 24 04 58 4b 05 	movl   $0x8054b58,0x4(%esp)
 804a01d:	08 
 804a01e:	89 04 24             	mov    %eax,(%esp)
 804a021:	e8 ca 34 00 00       	call   804d4f0 <main+0x38d0>
 804a026:	c7 44 24 08 63 00 00 	movl   $0x63,0x8(%esp)
 804a02d:	00 
 804a02e:	c7 44 24 04 63 4b 05 	movl   $0x8054b63,0x4(%esp)
 804a035:	08 
 804a036:	89 c6                	mov    %eax,%esi
 804a038:	a1 40 8e 05 08       	mov    0x8058e40,%eax
 804a03d:	89 04 24             	mov    %eax,(%esp)
 804a040:	e8 ab 34 00 00       	call   804d4f0 <main+0x38d0>
 804a045:	89 75 e4             	mov    %esi,-0x1c(%ebp)
 804a048:	c7 44 24 08 00 00 00 	movl   $0x0,0x8(%esp)
 804a04f:	00 
 804a050:	c7 44 24 04 6e 4b 05 	movl   $0x8054b6e,0x4(%esp)
 804a057:	08 
 804a058:	89 c3                	mov    %eax,%ebx
 804a05a:	a1 40 8e 05 08       	mov    0x8058e40,%eax
 804a05f:	89 04 24             	mov    %eax,(%esp)
 804a062:	e8 59 34 00 00       	call   804d4c0 <main+0x38a0>
 804a067:	85 c0                	test   %eax,%eax
 804a069:	74 0d                	je     804a078 <main+0x458>
 804a06b:	89 04 24             	mov    %eax,(%esp)
 804a06e:	e8 21 f4 ff ff       	call   8049494 <chroot@plt>
 804a073:	83 f8 ff             	cmp    $0xffffffff,%eax
 804a076:	74 85                	je     8049ffd <main+0x3dd>
 804a078:	c7 04 24 f3 4b 05 08 	movl   $0x8054bf3,(%esp)
 804a07f:	e8 50 f6 ff ff       	call   80496d4 <chdir@plt>
 804a084:	83 f8 ff             	cmp    $0xffffffff,%eax
 804a087:	0f 84 70 ff ff ff    	je     8049ffd <main+0x3dd>
 804a08d:	8d 45 e4             	lea    -0x1c(%ebp),%eax
 804a090:	89 44 24 04          	mov    %eax,0x4(%esp)
 804a094:	c7 04 24 01 00 00 00 	movl   $0x1,(%esp)
 804a09b:	e8 44 f5 ff ff       	call   80495e4 <setgroups@plt>
 804a0a0:	83 f8 ff             	cmp    $0xffffffff,%eax
 804a0a3:	0f 84 54 ff ff ff    	je     8049ffd <main+0x3dd>
 804a0a9:	8b 45 e4             	mov    -0x1c(%ebp),%eax
 804a0ac:	89 04 24             	mov    %eax,(%esp)
 804a0af:	e8 70 f6 ff ff       	call   8049724 <setgid@plt>
 804a0b4:	83 f8 ff             	cmp    $0xffffffff,%eax
 804a0b7:	0f 84 40 ff ff ff    	je     8049ffd <main+0x3dd>
 804a0bd:	89 1c 24             	mov    %ebx,(%esp)
 804a0c0:	e8 3f f9 ff ff       	call   8049a04 <setuid@plt>
 804a0c5:	83 f8 ff             	cmp    $0xffffffff,%eax
 804a0c8:	0f 84 2f ff ff ff    	je     8049ffd <main+0x3dd>
 804a0ce:	8b 45 d0             	mov    -0x30(%ebp),%eax
 804a0d1:	89 44 24 04          	mov    %eax,0x4(%esp)
 804a0d5:	8b 45 d4             	mov    -0x2c(%ebp),%eax
 804a0d8:	89 04 24             	mov    %eax,(%esp)
 804a0db:	e8 20 25 00 00       	call   804c600 <main+0x29e0>
 804a0e0:	e9 18 ff ff ff       	jmp    8049ffd <main+0x3dd>
 804a0e5:	8d 74 26 00          	lea    0x0(%esi,%eiz,1),%esi
 804a0e9:	8d bc 27 00 00 00 00 	lea    0x0(%edi,%eiz,1),%edi
 804a0f0:	55                   	push   %ebp
 804a0f1:	89 e5                	mov    %esp,%ebp
 804a0f3:	57                   	push   %edi
 804a0f4:	56                   	push   %esi
 804a0f5:	53                   	push   %ebx
 804a0f6:	83 ec 3c             	sub    $0x3c,%esp
 804a0f9:	8b 75 08             	mov    0x8(%ebp),%esi
 804a0fc:	8b 3e                	mov    (%esi),%edi
 804a0fe:	e8 41 f4 ff ff       	call   8049544 <getpid@plt>
 804a103:	89 c3                	mov    %eax,%ebx
 804a105:	e8 ba f6 ff ff       	call   80497c4 <fork@plt>
 804a10a:	85 c0                	test   %eax,%eax
 804a10c:	0f 84 b1 01 00 00    	je     804a2c3 <main+0x6a3>
 804a112:	83 f8 ff             	cmp    $0xffffffff,%eax
 804a115:	0f 84 45 01 00 00    	je     804a260 <main+0x640>
 804a11b:	89 46 0c             	mov    %eax,0xc(%esi)
 804a11e:	8d 5d cc             	lea    -0x34(%ebp),%ebx
 804a121:	eb 0d                	jmp    804a130 <main+0x510>
 804a123:	90                   	nop
 804a124:	90                   	nop
 804a125:	90                   	nop
 804a126:	90                   	nop
 804a127:	90                   	nop
 804a128:	90                   	nop
 804a129:	90                   	nop
 804a12a:	90                   	nop
 804a12b:	90                   	nop
 804a12c:	90                   	nop
 804a12d:	90                   	nop
 804a12e:	90                   	nop
 804a12f:	90                   	nop
 804a130:	c7 44 24 0c 00 00 00 	movl   $0x0,0xc(%esp)
 804a137:	00 
 804a138:	c7 44 24 08 10 00 00 	movl   $0x10,0x8(%esp)
 804a13f:	00 
 804a140:	89 5c 24 04          	mov    %ebx,0x4(%esp)
 804a144:	8b 06                	mov    (%esi),%eax
 804a146:	89 04 24             	mov    %eax,(%esp)
 804a149:	e8 a6 f6 ff ff       	call   80497f4 <MsgReceivePulse@plt>
 804a14e:	85 c0                	test   %eax,%eax
 804a150:	0f 85 0a 01 00 00    	jne    804a260 <main+0x640>
 804a156:	80 7d d0 00          	cmpb   $0x0,-0x30(%ebp)
 804a15a:	75 d4                	jne    804a130 <main+0x510>
 804a15c:	8b 45 d4             	mov    -0x2c(%ebp),%eax
 804a15f:	89 46 10             	mov    %eax,0x10(%esi)
 804a162:	89 f0                	mov    %esi,%eax
 804a164:	e8 87 fd ff ff       	call   8049ef0 <main+0x2d0>
 804a169:	85 c0                	test   %eax,%eax
 804a16b:	0f 84 ef 00 00 00    	je     804a260 <main+0x640>
 804a171:	eb 0d                	jmp    804a180 <main+0x560>
 804a173:	90                   	nop
 804a174:	90                   	nop
 804a175:	90                   	nop
 804a176:	90                   	nop
 804a177:	90                   	nop
 804a178:	90                   	nop
 804a179:	90                   	nop
 804a17a:	90                   	nop
 804a17b:	90                   	nop
 804a17c:	90                   	nop
 804a17d:	90                   	nop
 804a17e:	90                   	nop
 804a17f:	90                   	nop
 804a180:	8d 45 e4             	lea    -0x1c(%ebp),%eax
 804a183:	89 04 24             	mov    %eax,(%esp)
 804a186:	e8 69 f5 ff ff       	call   80496f4 <wait@plt>
 804a18b:	83 f8 ff             	cmp    $0xffffffff,%eax
 804a18e:	89 c3                	mov    %eax,%ebx
 804a190:	0f 84 ca 00 00 00    	je     804a260 <main+0x640>
 804a196:	8b 56 04             	mov    0x4(%esi),%edx
 804a199:	85 d2                	test   %edx,%edx
 804a19b:	74 29                	je     804a1c6 <main+0x5a6>
 804a19d:	8b 4e 08             	mov    0x8(%esi),%ecx
 804a1a0:	31 c0                	xor    %eax,%eax
 804a1a2:	31 ff                	xor    %edi,%edi
 804a1a4:	3b 59 04             	cmp    0x4(%ecx),%ebx
 804a1a7:	75 12                	jne    804a1bb <main+0x59b>
 804a1a9:	eb 4a                	jmp    804a1f5 <main+0x5d5>
 804a1ab:	90                   	nop
 804a1ac:	8d 74 26 00          	lea    0x0(%esi,%eiz,1),%esi
 804a1b0:	89 c7                	mov    %eax,%edi
 804a1b2:	c1 e7 04             	shl    $0x4,%edi
 804a1b5:	3b 5c 39 04          	cmp    0x4(%ecx,%edi,1),%ebx
 804a1b9:	74 07                	je     804a1c2 <main+0x5a2>
 804a1bb:	83 c0 01             	add    $0x1,%eax
 804a1be:	39 d0                	cmp    %edx,%eax
 804a1c0:	72 ee                	jb     804a1b0 <main+0x590>
 804a1c2:	39 d0                	cmp    %edx,%eax
 804a1c4:	75 2a                	jne    804a1f0 <main+0x5d0>
 804a1c6:	3b 5e 0c             	cmp    0xc(%esi),%ebx
 804a1c9:	0f 84 d4 00 00 00    	je     804a2a3 <main+0x683>
 804a1cf:	89 5c 24 08          	mov    %ebx,0x8(%esp)
 804a1d3:	c7 44 24 04 93 4b 05 	movl   $0x8054b93,0x4(%esp)
 804a1da:	08 
 804a1db:	c7 04 24 80 79 05 08 	movl   $0x8057980,(%esp)
 804a1e2:	e8 bd f4 ff ff       	call   80496a4 <fprintf@plt>
 804a1e7:	eb 97                	jmp    804a180 <main+0x560>
 804a1e9:	8d b4 26 00 00 00 00 	lea    0x0(%esi,%eiz,1),%esi
 804a1f0:	89 c7                	mov    %eax,%edi
 804a1f2:	c1 e7 04             	shl    $0x4,%edi
 804a1f5:	c7 44 39 04 00 00 00 	movl   $0x0,0x4(%ecx,%edi,1)
 804a1fc:	00 
 804a1fd:	8d 45 dc             	lea    -0x24(%ebp),%eax
 804a200:	89 44 24 04          	mov    %eax,0x4(%esp)
 804a204:	c7 04 24 02 00 00 00 	movl   $0x2,(%esp)
 804a20b:	e8 74 f2 ff ff       	call   8049484 <clock_gettime@plt>
 804a210:	8b 4d e0             	mov    -0x20(%ebp),%ecx
 804a213:	ba 83 de 1b 43       	mov    $0x431bde83,%edx
 804a218:	89 c8                	mov    %ecx,%eax
 804a21a:	f7 ea                	imul   %edx
 804a21c:	69 45 dc e8 03 00 00 	imul   $0x3e8,-0x24(%ebp),%eax
 804a223:	c1 f9 1f             	sar    $0x1f,%ecx
 804a226:	c1 fa 12             	sar    $0x12,%edx
 804a229:	29 ca                	sub    %ecx,%edx
 804a22b:	31 c9                	xor    %ecx,%ecx
 804a22d:	01 c2                	add    %eax,%edx
 804a22f:	8b 46 08             	mov    0x8(%esi),%eax
 804a232:	2b 54 38 08          	sub    0x8(%eax,%edi,1),%edx
 804a236:	1b 4c 38 0c          	sbb    0xc(%eax,%edi,1),%ecx
 804a23a:	83 f9 00             	cmp    $0x0,%ecx
 804a23d:	77 31                	ja     804a270 <main+0x650>
 804a23f:	83 fa 09             	cmp    $0x9,%edx
 804a242:	77 2c                	ja     804a270 <main+0x650>
 804a244:	89 5c 24 08          	mov    %ebx,0x8(%esp)
 804a248:	c7 44 24 04 ae 4b 05 	movl   $0x8054bae,0x4(%esp)
 804a24f:	08 
 804a250:	c7 04 24 80 79 05 08 	movl   $0x8057980,(%esp)
 804a257:	e8 48 f4 ff ff       	call   80496a4 <fprintf@plt>
 804a25c:	8d 74 26 00          	lea    0x0(%esi,%eiz,1),%esi
 804a260:	83 c4 3c             	add    $0x3c,%esp
 804a263:	5b                   	pop    %ebx
 804a264:	5e                   	pop    %esi
 804a265:	5f                   	pop    %edi
 804a266:	5d                   	pop    %ebp
 804a267:	c3                   	ret    
 804a268:	90                   	nop
 804a269:	8d b4 26 00 00 00 00 	lea    0x0(%esi,%eiz,1),%esi
 804a270:	89 5c 24 08          	mov    %ebx,0x8(%esp)
 804a274:	c7 44 24 04 cb 4b 05 	movl   $0x8054bcb,0x4(%esp)
 804a27b:	08 
 804a27c:	c7 04 24 80 79 05 08 	movl   $0x8057980,(%esp)
 804a283:	e8 1c f4 ff ff       	call   80496a4 <fprintf@plt>
 804a288:	8b 46 08             	mov    0x8(%esi),%eax
 804a28b:	c7 04 38 01 00 00 00 	movl   $0x1,(%eax,%edi,1)
 804a292:	89 f0                	mov    %esi,%eax
 804a294:	e8 57 fc ff ff       	call   8049ef0 <main+0x2d0>
 804a299:	85 c0                	test   %eax,%eax
 804a29b:	0f 85 df fe ff ff    	jne    804a180 <main+0x560>
 804a2a1:	eb bd                	jmp    804a260 <main+0x640>
 804a2a3:	89 5c 24 08          	mov    %ebx,0x8(%esp)
 804a2a7:	c7 44 24 04 79 4b 05 	movl   $0x8054b79,0x4(%esp)
 804a2ae:	08 
 804a2af:	c7 04 24 80 79 05 08 	movl   $0x8057980,(%esp)
 804a2b6:	e8 e9 f3 ff ff       	call   80496a4 <fprintf@plt>
 804a2bb:	83 c4 3c             	add    $0x3c,%esp
 804a2be:	5b                   	pop    %ebx
 804a2bf:	5e                   	pop    %esi
 804a2c0:	5f                   	pop    %edi
 804a2c1:	5d                   	pop    %ebp
 804a2c2:	c3                   	ret    
 804a2c3:	89 7c 24 04          	mov    %edi,0x4(%esp)
 804a2c7:	89 1c 24             	mov    %ebx,(%esp)
 804a2ca:	e8 11 0c 00 00       	call   804aee0 <main+0x12c0>
 804a2cf:	c7 04 24 00 00 00 00 	movl   $0x0,(%esp)
 804a2d6:	e8 99 f6 ff ff       	call   8049974 <exit@plt>
 804a2db:	90                   	nop
 804a2dc:	90                   	nop
 804a2dd:	90                   	nop
 804a2de:	90                   	nop
 804a2df:	90                   	nop
 804a2e0:	55                   	push   %ebp
 804a2e1:	8b 4a 28             	mov    0x28(%edx),%ecx
 804a2e4:	89 e5                	mov    %esp,%ebp
 804a2e6:	85 c9                	test   %ecx,%ecx
 804a2e8:	75 16                	jne    804a300 <main+0x6e0>
 804a2ea:	8b 0a                	mov    (%edx),%ecx
 804a2ec:	85 c9                	test   %ecx,%ecx
 804a2ee:	74 40                	je     804a330 <main+0x710>
 804a2f0:	8b 42 04             	mov    0x4(%edx),%eax
 804a2f3:	89 41 04             	mov    %eax,0x4(%ecx)
 804a2f6:	8b 52 04             	mov    0x4(%edx),%edx
 804a2f9:	89 0a                	mov    %ecx,(%edx)
 804a2fb:	5d                   	pop    %ebp
 804a2fc:	c3                   	ret    
 804a2fd:	8d 76 00             	lea    0x0(%esi),%esi
 804a300:	83 f9 04             	cmp    $0x4,%ecx
 804a303:	74 1b                	je     804a320 <main+0x700>
 804a305:	83 f9 05             	cmp    $0x5,%ecx
 804a308:	74 36                	je     804a340 <main+0x720>
 804a30a:	8b 0a                	mov    (%edx),%ecx
 804a30c:	85 c9                	test   %ecx,%ecx
 804a30e:	75 e0                	jne    804a2f0 <main+0x6d0>
 804a310:	8b 52 04             	mov    0x4(%edx),%edx
 804a313:	31 c9                	xor    %ecx,%ecx
 804a315:	89 50 5c             	mov    %edx,0x5c(%eax)
 804a318:	eb df                	jmp    804a2f9 <main+0x6d9>
 804a31a:	8d b6 00 00 00 00    	lea    0x0(%esi),%esi
 804a320:	8b 0a                	mov    (%edx),%ecx
 804a322:	85 c9                	test   %ecx,%ecx
 804a324:	75 ca                	jne    804a2f0 <main+0x6d0>
 804a326:	8b 52 04             	mov    0x4(%edx),%edx
 804a329:	31 c9                	xor    %ecx,%ecx
 804a32b:	89 50 64             	mov    %edx,0x64(%eax)
 804a32e:	eb c9                	jmp    804a2f9 <main+0x6d9>
 804a330:	8b 52 04             	mov    0x4(%edx),%edx
 804a333:	31 c9                	xor    %ecx,%ecx
 804a335:	89 50 74             	mov    %edx,0x74(%eax)
 804a338:	eb bf                	jmp    804a2f9 <main+0x6d9>
 804a33a:	8d b6 00 00 00 00    	lea    0x0(%esi),%esi
 804a340:	8b 0a                	mov    (%edx),%ecx
 804a342:	85 c9                	test   %ecx,%ecx
 804a344:	75 aa                	jne    804a2f0 <main+0x6d0>
 804a346:	8b 52 04             	mov    0x4(%edx),%edx
 804a349:	31 c9                	xor    %ecx,%ecx
 804a34b:	89 50 6c             	mov    %edx,0x6c(%eax)
 804a34e:	eb a9                	jmp    804a2f9 <main+0x6d9>
 804a350:	55                   	push   %ebp
 804a351:	89 e5                	mov    %esp,%ebp
 804a353:	83 ec 18             	sub    $0x18,%esp
 804a356:	89 5d f8             	mov    %ebx,-0x8(%ebp)
 804a359:	89 d3                	mov    %edx,%ebx
 804a35b:	89 75 fc             	mov    %esi,-0x4(%ebp)
 804a35e:	89 c6                	mov    %eax,%esi
 804a360:	8b 42 28             	mov    0x28(%edx),%eax
 804a363:	85 c0                	test   %eax,%eax
 804a365:	74 56                	je     804a3bd <main+0x79d>
 804a367:	c7 44 24 0c 00 00 00 	movl   $0x0,0xc(%esp)
 804a36e:	00 
 804a36f:	c7 44 24 08 00 00 00 	movl   $0x70000000,0x8(%esp)
 804a376:	70 
 804a377:	c7 44 24 04 02 00 00 	movl   $0x2,0x4(%esp)
 804a37e:	00 
 804a37f:	8b 42 24             	mov    0x24(%edx),%eax
 804a382:	89 04 24             	mov    %eax,(%esp)
 804a385:	e8 da f4 ff ff       	call   8049864 <ionotify@plt>
 804a38a:	8b 43 24             	mov    0x24(%ebx),%eax
 804a38d:	89 04 24             	mov    %eax,(%esp)
 804a390:	e8 af f6 ff ff       	call   8049a44 <close@plt>
 804a395:	89 f0                	mov    %esi,%eax
 804a397:	89 da                	mov    %ebx,%edx
 804a399:	c7 43 24 ff ff ff ff 	movl   $0xffffffff,0x24(%ebx)
 804a3a0:	e8 3b ff ff ff       	call   804a2e0 <main+0x6c0>
 804a3a5:	8b 46 74             	mov    0x74(%esi),%eax
 804a3a8:	c7 03 00 00 00 00    	movl   $0x0,(%ebx)
 804a3ae:	c7 43 28 00 00 00 00 	movl   $0x0,0x28(%ebx)
 804a3b5:	89 43 04             	mov    %eax,0x4(%ebx)
 804a3b8:	89 18                	mov    %ebx,(%eax)
 804a3ba:	89 5e 74             	mov    %ebx,0x74(%esi)
 804a3bd:	8b 5d f8             	mov    -0x8(%ebp),%ebx
 804a3c0:	8b 75 fc             	mov    -0x4(%ebp),%esi
 804a3c3:	89 ec                	mov    %ebp,%esp
 804a3c5:	5d                   	pop    %ebp
 804a3c6:	c3                   	ret    
 804a3c7:	89 f6                	mov    %esi,%esi
 804a3c9:	8d bc 27 00 00 00 00 	lea    0x0(%edi,%eiz,1),%edi
 804a3d0:	55                   	push   %ebp
 804a3d1:	89 e5                	mov    %esp,%ebp
 804a3d3:	83 ec 18             	sub    $0x18,%esp
 804a3d6:	89 5d f8             	mov    %ebx,-0x8(%ebp)
 804a3d9:	89 d3                	mov    %edx,%ebx
 804a3db:	89 75 fc             	mov    %esi,-0x4(%ebp)
 804a3de:	8b 4a 34             	mov    0x34(%edx),%ecx
 804a3e1:	ba 01 00 00 00       	mov    $0x1,%edx
 804a3e6:	3b 4b 38             	cmp    0x38(%ebx),%ecx
 804a3e9:	74 15                	je     804a400 <main+0x7e0>
 804a3eb:	8b 5d f8             	mov    -0x8(%ebp),%ebx
 804a3ee:	89 d0                	mov    %edx,%eax
 804a3f0:	8b 75 fc             	mov    -0x4(%ebp),%esi
 804a3f3:	89 ec                	mov    %ebp,%esp
 804a3f5:	5d                   	pop    %ebp
 804a3f6:	c3                   	ret    
 804a3f7:	89 f6                	mov    %esi,%esi
 804a3f9:	8d bc 27 00 00 00 00 	lea    0x0(%edi,%eiz,1),%edi
 804a400:	85 c9                	test   %ecx,%ecx
 804a402:	be fc 01 00 00       	mov    $0x1fc,%esi
 804a407:	75 37                	jne    804a440 <main+0x820>
 804a409:	89 74 24 08          	mov    %esi,0x8(%esp)
 804a40d:	8b 53 30             	mov    0x30(%ebx),%edx
 804a410:	83 c0 34             	add    $0x34,%eax
 804a413:	89 04 24             	mov    %eax,(%esp)
 804a416:	89 54 24 04          	mov    %edx,0x4(%esp)
 804a41a:	e8 a1 39 00 00       	call   804ddc0 <main+0x41a0>
 804a41f:	31 d2                	xor    %edx,%edx
 804a421:	85 c0                	test   %eax,%eax
 804a423:	74 c6                	je     804a3eb <main+0x7cb>
 804a425:	b2 01                	mov    $0x1,%dl
 804a427:	89 43 30             	mov    %eax,0x30(%ebx)
 804a42a:	89 d0                	mov    %edx,%eax
 804a42c:	89 73 38             	mov    %esi,0x38(%ebx)
 804a42f:	8b 5d f8             	mov    -0x8(%ebp),%ebx
 804a432:	8b 75 fc             	mov    -0x4(%ebp),%esi
 804a435:	89 ec                	mov    %ebp,%esp
 804a437:	5d                   	pop    %ebp
 804a438:	c3                   	ret    
 804a439:	8d b4 26 00 00 00 00 	lea    0x0(%esi,%eiz,1),%esi
 804a440:	8d 74 09 04          	lea    0x4(%ecx,%ecx,1),%esi
 804a444:	eb c3                	jmp    804a409 <main+0x7e9>
 804a446:	8d 76 00             	lea    0x0(%esi),%esi
 804a449:	8d bc 27 00 00 00 00 	lea    0x0(%edi,%eiz,1),%edi
 804a450:	55                   	push   %ebp
 804a451:	89 e5                	mov    %esp,%ebp
 804a453:	57                   	push   %edi
 804a454:	56                   	push   %esi
 804a455:	89 d6                	mov    %edx,%esi
 804a457:	53                   	push   %ebx
 804a458:	89 c3                	mov    %eax,%ebx
 804a45a:	83 ec 2c             	sub    $0x2c,%esp
 804a45d:	8b 52 28             	mov    0x28(%edx),%edx
 804a460:	85 d2                	test   %edx,%edx
 804a462:	0f 84 8e 00 00 00    	je     804a4f6 <main+0x8d6>
 804a468:	c7 45 d8 04 00 00 00 	movl   $0x4,-0x28(%ebp)
 804a46f:	8b 40 04             	mov    0x4(%eax),%eax
 804a472:	8d 7d d8             	lea    -0x28(%ebp),%edi
 804a475:	66 c7 45 e6 ff ff    	movw   $0xffff,-0x1a(%ebp)
 804a47b:	89 75 e0             	mov    %esi,-0x20(%ebp)
 804a47e:	66 c7 45 e4 02 00    	movw   $0x2,-0x1c(%ebp)
 804a484:	89 45 dc             	mov    %eax,-0x24(%ebp)
 804a487:	8b 46 4c             	mov    0x4c(%esi),%eax
 804a48a:	85 c0                	test   %eax,%eax
 804a48c:	74 68                	je     804a4f6 <main+0x8d6>
 804a48e:	66 90                	xchg   %ax,%ax
 804a490:	89 7c 24 0c          	mov    %edi,0xc(%esp)
 804a494:	c7 44 24 08 00 00 00 	movl   $0x20000000,0x8(%esp)
 804a49b:	20 
 804a49c:	c7 44 24 04 03 00 00 	movl   $0x3,0x4(%esp)
 804a4a3:	00 
 804a4a4:	8b 46 24             	mov    0x24(%esi),%eax
 804a4a7:	89 04 24             	mov    %eax,(%esp)
 804a4aa:	e8 b5 f3 ff ff       	call   8049864 <ionotify@plt>
 804a4af:	85 c0                	test   %eax,%eax
 804a4b1:	74 43                	je     804a4f6 <main+0x8d6>
 804a4b3:	83 f8 ff             	cmp    $0xffffffff,%eax
 804a4b6:	74 4f                	je     804a507 <main+0x8e7>
 804a4b8:	c7 44 24 0c 00 00 00 	movl   $0x0,0xc(%esp)
 804a4bf:	00 
 804a4c0:	8b 46 54             	mov    0x54(%esi),%eax
 804a4c3:	89 44 24 08          	mov    %eax,0x8(%esp)
 804a4c7:	8b 46 4c             	mov    0x4c(%esi),%eax
 804a4ca:	03 46 50             	add    0x50(%esi),%eax
 804a4cd:	89 44 24 04          	mov    %eax,0x4(%esp)
 804a4d1:	8b 46 24             	mov    0x24(%esi),%eax
 804a4d4:	89 04 24             	mov    %eax,(%esp)
 804a4d7:	e8 08 f4 ff ff       	call   80498e4 <send@plt>
 804a4dc:	85 c0                	test   %eax,%eax
 804a4de:	7e 20                	jle    804a500 <main+0x8e0>
 804a4e0:	8b 56 54             	mov    0x54(%esi),%edx
 804a4e3:	01 46 50             	add    %eax,0x50(%esi)
 804a4e6:	29 c2                	sub    %eax,%edx
 804a4e8:	85 d2                	test   %edx,%edx
 804a4ea:	89 56 54             	mov    %edx,0x54(%esi)
 804a4ed:	74 31                	je     804a520 <main+0x900>
 804a4ef:	8b 46 4c             	mov    0x4c(%esi),%eax
 804a4f2:	85 c0                	test   %eax,%eax
 804a4f4:	75 9a                	jne    804a490 <main+0x870>
 804a4f6:	83 c4 2c             	add    $0x2c,%esp
 804a4f9:	5b                   	pop    %ebx
 804a4fa:	5e                   	pop    %esi
 804a4fb:	5f                   	pop    %edi
 804a4fc:	5d                   	pop    %ebp
 804a4fd:	c3                   	ret    
 804a4fe:	66 90                	xchg   %ax,%ax
 804a500:	c7 46 54 00 00 00 00 	movl   $0x0,0x54(%esi)
 804a507:	89 f2                	mov    %esi,%edx
 804a509:	89 d8                	mov    %ebx,%eax
 804a50b:	e8 40 fe ff ff       	call   804a350 <main+0x730>
 804a510:	83 c4 2c             	add    $0x2c,%esp
 804a513:	5b                   	pop    %ebx
 804a514:	5e                   	pop    %esi
 804a515:	5f                   	pop    %edi
 804a516:	5d                   	pop    %ebp
 804a517:	c3                   	ret    
 804a518:	90                   	nop
 804a519:	8d b4 26 00 00 00 00 	lea    0x0(%esi,%eiz,1),%esi
 804a520:	c7 44 24 04 00 00 00 	movl   $0x0,0x4(%esp)
 804a527:	00 
 804a528:	8b 46 58             	mov    0x58(%esi),%eax
 804a52b:	89 04 24             	mov    %eax,(%esp)
 804a52e:	e8 51 f1 ff ff       	call   8049684 <MsgError@plt>
 804a533:	8b 46 4c             	mov    0x4c(%esi),%eax
 804a536:	89 04 24             	mov    %eax,(%esp)
 804a539:	e8 16 f5 ff ff       	call   8049a54 <free@plt>
 804a53e:	c7 46 4c 00 00 00 00 	movl   $0x0,0x4c(%esi)
 804a545:	c7 46 54 00 00 00 00 	movl   $0x0,0x54(%esi)
 804a54c:	c7 46 50 00 00 00 00 	movl   $0x0,0x50(%esi)
 804a553:	c7 46 58 00 00 00 00 	movl   $0x0,0x58(%esi)
 804a55a:	eb 9a                	jmp    804a4f6 <main+0x8d6>
 804a55c:	8d 74 26 00          	lea    0x0(%esi,%eiz,1),%esi
 804a560:	55                   	push   %ebp
 804a561:	89 e5                	mov    %esp,%ebp
 804a563:	56                   	push   %esi
 804a564:	89 ce                	mov    %ecx,%esi
 804a566:	53                   	push   %ebx
 804a567:	89 c3                	mov    %eax,%ebx
 804a569:	81 ec d0 00 00 00    	sub    $0xd0,%esp
 804a56f:	c7 85 48 ff ff ff 01 	movl   $0x1,-0xb8(%ebp)
 804a576:	00 00 00 
 804a579:	89 8d 4c ff ff ff    	mov    %ecx,-0xb4(%ebp)
 804a57f:	8b 41 08             	mov    0x8(%ecx),%eax
 804a582:	89 85 50 ff ff ff    	mov    %eax,-0xb0(%ebp)
 804a588:	8b 41 0c             	mov    0xc(%ecx),%eax
 804a58b:	89 85 54 ff ff ff    	mov    %eax,-0xac(%ebp)
 804a591:	8b 41 10             	mov    0x10(%ecx),%eax
 804a594:	89 85 58 ff ff ff    	mov    %eax,-0xa8(%ebp)
 804a59a:	8b 41 14             	mov    0x14(%ecx),%eax
 804a59d:	89 85 5c ff ff ff    	mov    %eax,-0xa4(%ebp)
 804a5a3:	8b 41 18             	mov    0x18(%ecx),%eax
 804a5a6:	89 85 60 ff ff ff    	mov    %eax,-0xa0(%ebp)
 804a5ac:	8b 41 1c             	mov    0x1c(%ecx),%eax
 804a5af:	89 85 64 ff ff ff    	mov    %eax,-0x9c(%ebp)
 804a5b5:	8b 41 20             	mov    0x20(%ecx),%eax
 804a5b8:	89 85 68 ff ff ff    	mov    %eax,-0x98(%ebp)
 804a5be:	8b 41 30             	mov    0x30(%ecx),%eax
 804a5c1:	89 85 6c ff ff ff    	mov    %eax,-0x94(%ebp)
 804a5c7:	8b 49 48             	mov    0x48(%ecx),%ecx
 804a5ca:	85 c9                	test   %ecx,%ecx
 804a5cc:	0f 85 9e 00 00 00    	jne    804a670 <main+0xa50>
 804a5d2:	c6 85 70 ff ff ff 00 	movb   $0x0,-0x90(%ebp)
 804a5d9:	8d 85 48 ff ff ff    	lea    -0xb8(%ebp),%eax
 804a5df:	89 14 24             	mov    %edx,(%esp)
 804a5e2:	c7 44 24 0c a8 00 00 	movl   $0xa8,0xc(%esp)
 804a5e9:	00 
 804a5ea:	89 44 24 08          	mov    %eax,0x8(%esp)
 804a5ee:	c7 44 24 04 00 00 00 	movl   $0x0,0x4(%esp)
 804a5f5:	00 
 804a5f6:	e8 f9 f3 ff ff       	call   80499f4 <MsgReply@plt>
 804a5fb:	89 c2                	mov    %eax,%edx
 804a5fd:	31 c0                	xor    %eax,%eax
 804a5ff:	83 fa ff             	cmp    $0xffffffff,%edx
 804a602:	74 5a                	je     804a65e <main+0xa3e>
 804a604:	8d 45 f0             	lea    -0x10(%ebp),%eax
 804a607:	89 44 24 04          	mov    %eax,0x4(%esp)
 804a60b:	c7 04 24 02 00 00 00 	movl   $0x2,(%esp)
 804a612:	e8 6d ee ff ff       	call   8049484 <clock_gettime@plt>
 804a617:	8b 4d f4             	mov    -0xc(%ebp),%ecx
 804a61a:	ba 83 de 1b 43       	mov    $0x431bde83,%edx
 804a61f:	c7 06 00 00 00 00    	movl   $0x0,(%esi)
 804a625:	c7 46 7c 00 00 00 00 	movl   $0x0,0x7c(%esi)
 804a62c:	c7 46 28 05 00 00 00 	movl   $0x5,0x28(%esi)
 804a633:	89 c8                	mov    %ecx,%eax
 804a635:	f7 ea                	imul   %edx
 804a637:	69 45 f0 e8 03 00 00 	imul   $0x3e8,-0x10(%ebp),%eax
 804a63e:	c1 f9 1f             	sar    $0x1f,%ecx
 804a641:	c1 fa 12             	sar    $0x12,%edx
 804a644:	29 ca                	sub    %ecx,%edx
 804a646:	01 c2                	add    %eax,%edx
 804a648:	8b 43 6c             	mov    0x6c(%ebx),%eax
 804a64b:	89 56 78             	mov    %edx,0x78(%esi)
 804a64e:	89 46 04             	mov    %eax,0x4(%esi)
 804a651:	8b 43 6c             	mov    0x6c(%ebx),%eax
 804a654:	89 73 6c             	mov    %esi,0x6c(%ebx)
 804a657:	89 30                	mov    %esi,(%eax)
 804a659:	b8 01 00 00 00       	mov    $0x1,%eax
 804a65e:	81 c4 d0 00 00 00    	add    $0xd0,%esp
 804a664:	5b                   	pop    %ebx
 804a665:	5e                   	pop    %esi
 804a666:	5d                   	pop    %ebp
 804a667:	c3                   	ret    
 804a668:	90                   	nop
 804a669:	8d b4 26 00 00 00 00 	lea    0x0(%esi,%eiz,1),%esi
 804a670:	8b 43 18             	mov    0x18(%ebx),%eax
 804a673:	89 95 44 ff ff ff    	mov    %edx,-0xbc(%ebp)
 804a679:	89 04 24             	mov    %eax,(%esp)
 804a67c:	e8 43 f3 ff ff       	call   80499c4 <strlen@plt>
 804a681:	c7 44 24 08 80 00 00 	movl   $0x80,0x8(%esp)
 804a688:	00 
 804a689:	83 c0 01             	add    $0x1,%eax
 804a68c:	03 46 40             	add    0x40(%esi),%eax
 804a68f:	89 44 24 04          	mov    %eax,0x4(%esp)
 804a693:	8d 85 70 ff ff ff    	lea    -0x90(%ebp),%eax
 804a699:	89 04 24             	mov    %eax,(%esp)
 804a69c:	e8 b3 f0 ff ff       	call   8049754 <strncpy@plt>
 804a6a1:	8b 95 44 ff ff ff    	mov    -0xbc(%ebp),%edx
 804a6a7:	e9 2d ff ff ff       	jmp    804a5d9 <main+0x9b9>
 804a6ac:	8d 74 26 00          	lea    0x0(%esi,%eiz,1),%esi
 804a6b0:	55                   	push   %ebp
 804a6b1:	89 e5                	mov    %esp,%ebp
 804a6b3:	57                   	push   %edi
 804a6b4:	56                   	push   %esi
 804a6b5:	89 d6                	mov    %edx,%esi
 804a6b7:	53                   	push   %ebx
 804a6b8:	89 c3                	mov    %eax,%ebx
 804a6ba:	83 ec 2c             	sub    $0x2c,%esp
 804a6bd:	8b 7a 28             	mov    0x28(%edx),%edi
 804a6c0:	85 ff                	test   %edi,%edi
 804a6c2:	75 0c                	jne    804a6d0 <main+0xab0>
 804a6c4:	83 c4 2c             	add    $0x2c,%esp
 804a6c7:	5b                   	pop    %ebx
 804a6c8:	5e                   	pop    %esi
 804a6c9:	5f                   	pop    %edi
 804a6ca:	5d                   	pop    %ebp
 804a6cb:	c3                   	ret    
 804a6cc:	8d 74 26 00          	lea    0x0(%esi,%eiz,1),%esi
 804a6d0:	8d 45 e0             	lea    -0x20(%ebp),%eax
 804a6d3:	89 44 24 04          	mov    %eax,0x4(%esp)
 804a6d7:	c7 04 24 02 00 00 00 	movl   $0x2,(%esp)
 804a6de:	e8 a1 ed ff ff       	call   8049484 <clock_gettime@plt>
 804a6e3:	8b 4d e4             	mov    -0x1c(%ebp),%ecx
 804a6e6:	ba 83 de 1b 43       	mov    $0x431bde83,%edx
 804a6eb:	c7 46 74 00 00 00 00 	movl   $0x0,0x74(%esi)
 804a6f2:	89 c8                	mov    %ecx,%eax
 804a6f4:	f7 ea                	imul   %edx
 804a6f6:	69 45 e0 e8 03 00 00 	imul   $0x3e8,-0x20(%ebp),%eax
 804a6fd:	c1 f9 1f             	sar    $0x1f,%ecx
 804a700:	c1 fa 12             	sar    $0x12,%edx
 804a703:	29 ca                	sub    %ecx,%edx
 804a705:	01 c2                	add    %eax,%edx
 804a707:	89 d8                	mov    %ebx,%eax
 804a709:	89 56 70             	mov    %edx,0x70(%esi)
 804a70c:	89 f2                	mov    %esi,%edx
 804a70e:	e8 cd fb ff ff       	call   804a2e0 <main+0x6c0>
 804a713:	eb 2a                	jmp    804a73f <main+0xb1f>
 804a715:	8d 74 26 00          	lea    0x0(%esi,%eiz,1),%esi
 804a719:	8d bc 27 00 00 00 00 	lea    0x0(%edi,%eiz,1),%edi
 804a720:	8b 10                	mov    (%eax),%edx
 804a722:	8b 78 04             	mov    0x4(%eax),%edi
 804a725:	89 04 24             	mov    %eax,(%esp)
 804a728:	89 53 54             	mov    %edx,0x54(%ebx)
 804a72b:	e8 24 f3 ff ff       	call   8049a54 <free@plt>
 804a730:	89 f1                	mov    %esi,%ecx
 804a732:	89 fa                	mov    %edi,%edx
 804a734:	89 d8                	mov    %ebx,%eax
 804a736:	e8 25 fe ff ff       	call   804a560 <main+0x940>
 804a73b:	85 c0                	test   %eax,%eax
 804a73d:	75 85                	jne    804a6c4 <main+0xaa4>
 804a73f:	8b 43 54             	mov    0x54(%ebx),%eax
 804a742:	85 c0                	test   %eax,%eax
 804a744:	75 da                	jne    804a720 <main+0xb00>
 804a746:	8b 43 64             	mov    0x64(%ebx),%eax
 804a749:	c7 06 00 00 00 00    	movl   $0x0,(%esi)
 804a74f:	c7 46 28 04 00 00 00 	movl   $0x4,0x28(%esi)
 804a756:	89 46 04             	mov    %eax,0x4(%esi)
 804a759:	89 30                	mov    %esi,(%eax)
 804a75b:	89 73 64             	mov    %esi,0x64(%ebx)
 804a75e:	e9 61 ff ff ff       	jmp    804a6c4 <main+0xaa4>
 804a763:	8d b6 00 00 00 00    	lea    0x0(%esi),%esi
 804a769:	8d bc 27 00 00 00 00 	lea    0x0(%edi,%eiz,1),%edi
 804a770:	55                   	push   %ebp
 804a771:	89 e5                	mov    %esp,%ebp
 804a773:	83 ec 58             	sub    $0x58,%esp
 804a776:	89 5d f4             	mov    %ebx,-0xc(%ebp)
 804a779:	89 d3                	mov    %edx,%ebx
 804a77b:	89 75 f8             	mov    %esi,-0x8(%ebp)
 804a77e:	89 7d fc             	mov    %edi,-0x4(%ebp)
 804a781:	89 c7                	mov    %eax,%edi
 804a783:	8b 42 2c             	mov    0x2c(%edx),%eax
 804a786:	89 4d cc             	mov    %ecx,-0x34(%ebp)
 804a789:	8b 77 14             	mov    0x14(%edi),%esi
 804a78c:	89 45 d0             	mov    %eax,-0x30(%ebp)
 804a78f:	8b 42 40             	mov    0x40(%edx),%eax
 804a792:	85 c0                	test   %eax,%eax
 804a794:	0f 84 96 00 00 00    	je     804a830 <main+0xc10>
 804a79a:	8b 4a 48             	mov    0x48(%edx),%ecx
 804a79d:	8b 42 44             	mov    0x44(%edx),%eax
 804a7a0:	8b 55 d0             	mov    -0x30(%ebp),%edx
 804a7a3:	39 f2                	cmp    %esi,%edx
 804a7a5:	77 79                	ja     804a820 <main+0xc00>
 804a7a7:	39 ca                	cmp    %ecx,%edx
 804a7a9:	76 58                	jbe    804a803 <main+0xbe3>
 804a7ab:	8b 75 08             	mov    0x8(%ebp),%esi
 804a7ae:	01 ce                	add    %ecx,%esi
 804a7b0:	39 f2                	cmp    %esi,%edx
 804a7b2:	73 07                	jae    804a7bb <main+0xb9b>
 804a7b4:	89 d6                	mov    %edx,%esi
 804a7b6:	29 ce                	sub    %ecx,%esi
 804a7b8:	89 75 08             	mov    %esi,0x8(%ebp)
 804a7bb:	8b 75 cc             	mov    -0x34(%ebp),%esi
 804a7be:	8b 4d 08             	mov    0x8(%ebp),%ecx
 804a7c1:	89 55 c8             	mov    %edx,-0x38(%ebp)
 804a7c4:	89 04 24             	mov    %eax,(%esp)
 804a7c7:	89 74 24 04          	mov    %esi,0x4(%esp)
 804a7cb:	89 4c 24 08          	mov    %ecx,0x8(%esp)
 804a7cf:	e8 a0 ee ff ff       	call   8049674 <write@plt>
 804a7d4:	8b 75 08             	mov    0x8(%ebp),%esi
 804a7d7:	8b 55 c8             	mov    -0x38(%ebp),%edx
 804a7da:	03 73 48             	add    0x48(%ebx),%esi
 804a7dd:	39 f2                	cmp    %esi,%edx
 804a7df:	89 73 48             	mov    %esi,0x48(%ebx)
 804a7e2:	76 1c                	jbe    804a800 <main+0xbe0>
 804a7e4:	8b 5d f4             	mov    -0xc(%ebp),%ebx
 804a7e7:	8b 75 f8             	mov    -0x8(%ebp),%esi
 804a7ea:	8b 7d fc             	mov    -0x4(%ebp),%edi
 804a7ed:	89 ec                	mov    %ebp,%esp
 804a7ef:	5d                   	pop    %ebp
 804a7f0:	c3                   	ret    
 804a7f1:	eb 0d                	jmp    804a800 <main+0xbe0>
 804a7f3:	90                   	nop
 804a7f4:	90                   	nop
 804a7f5:	90                   	nop
 804a7f6:	90                   	nop
 804a7f7:	90                   	nop
 804a7f8:	90                   	nop
 804a7f9:	90                   	nop
 804a7fa:	90                   	nop
 804a7fb:	90                   	nop
 804a7fc:	90                   	nop
 804a7fd:	90                   	nop
 804a7fe:	90                   	nop
 804a7ff:	90                   	nop
 804a800:	8b 43 44             	mov    0x44(%ebx),%eax
 804a803:	89 04 24             	mov    %eax,(%esp)
 804a806:	e8 39 f2 ff ff       	call   8049a44 <close@plt>
 804a80b:	89 da                	mov    %ebx,%edx
 804a80d:	89 f8                	mov    %edi,%eax
 804a80f:	c7 43 44 ff ff ff ff 	movl   $0xffffffff,0x44(%ebx)
 804a816:	e8 95 fe ff ff       	call   804a6b0 <main+0xa90>
 804a81b:	eb c7                	jmp    804a7e4 <main+0xbc4>
 804a81d:	8d 76 00             	lea    0x0(%esi),%esi
 804a820:	89 f2                	mov    %esi,%edx
 804a822:	eb 83                	jmp    804a7a7 <main+0xb87>
 804a824:	8d b6 00 00 00 00    	lea    0x0(%esi),%esi
 804a82a:	8d bf 00 00 00 00    	lea    0x0(%edi),%edi
 804a830:	8b 47 1c             	mov    0x1c(%edi),%eax
 804a833:	89 04 24             	mov    %eax,(%esp)
 804a836:	e8 89 f1 ff ff       	call   80499c4 <strlen@plt>
 804a83b:	83 c0 20             	add    $0x20,%eax
 804a83e:	89 04 24             	mov    %eax,(%esp)
 804a841:	e8 6e ed ff ff       	call   80495b4 <malloc@plt>
 804a846:	85 c0                	test   %eax,%eax
 804a848:	89 c1                	mov    %eax,%ecx
 804a84a:	0f 84 e0 00 00 00    	je     804a930 <main+0xd10>
 804a850:	8d 45 e0             	lea    -0x20(%ebp),%eax
 804a853:	89 4d c8             	mov    %ecx,-0x38(%ebp)
 804a856:	89 44 24 04          	mov    %eax,0x4(%esp)
 804a85a:	c7 04 24 02 00 00 00 	movl   $0x2,(%esp)
 804a861:	e8 1e ec ff ff       	call   8049484 <clock_gettime@plt>
 804a866:	8b 45 e4             	mov    -0x1c(%ebp),%eax
 804a869:	ba 83 de 1b 43       	mov    $0x431bde83,%edx
 804a86e:	c7 44 24 08 e8 03 00 	movl   $0x3e8,0x8(%esp)
 804a875:	00 
 804a876:	c7 44 24 0c 00 00 00 	movl   $0x0,0xc(%esp)
 804a87d:	00 
 804a87e:	c7 44 24 04 00 00 00 	movl   $0x0,0x4(%esp)
 804a885:	00 
 804a886:	f7 ea                	imul   %edx
 804a888:	8b 45 e4             	mov    -0x1c(%ebp),%eax
 804a88b:	c1 fa 12             	sar    $0x12,%edx
 804a88e:	c1 f8 1f             	sar    $0x1f,%eax
 804a891:	29 c2                	sub    %eax,%edx
 804a893:	69 45 e0 e8 03 00 00 	imul   $0x3e8,-0x20(%ebp),%eax
 804a89a:	01 c2                	add    %eax,%edx
 804a89c:	89 14 24             	mov    %edx,(%esp)
 804a89f:	e8 6c 9f 00 00       	call   8054810 <__udivdi3>
 804a8a4:	8b 4d c8             	mov    -0x38(%ebp),%ecx
 804a8a7:	c7 44 24 04 e8 4b 05 	movl   $0x8054be8,0x4(%esp)
 804a8ae:	08 
 804a8af:	89 0c 24             	mov    %ecx,(%esp)
 804a8b2:	89 44 24 10          	mov    %eax,0x10(%esp)
 804a8b6:	8b 43 1c             	mov    0x1c(%ebx),%eax
 804a8b9:	89 54 24 14          	mov    %edx,0x14(%esp)
 804a8bd:	89 44 24 0c          	mov    %eax,0xc(%esp)
 804a8c1:	8b 47 1c             	mov    0x1c(%edi),%eax
 804a8c4:	89 44 24 08          	mov    %eax,0x8(%esp)
 804a8c8:	e8 37 f0 ff ff       	call   8049904 <sprintf@plt>
 804a8cd:	8b 4d c8             	mov    -0x38(%ebp),%ecx
 804a8d0:	c7 44 24 04 e9 01 00 	movl   $0x1e9,0x4(%esp)
 804a8d7:	00 
 804a8d8:	89 0c 24             	mov    %ecx,(%esp)
 804a8db:	e8 44 f1 ff ff       	call   8049a24 <mkdir@plt>
 804a8e0:	8b 4d c8             	mov    -0x38(%ebp),%ecx
 804a8e3:	c7 44 24 04 f5 4b 05 	movl   $0x8054bf5,0x4(%esp)
 804a8ea:	08 
 804a8eb:	89 4b 3c             	mov    %ecx,0x3c(%ebx)
 804a8ee:	89 0c 24             	mov    %ecx,(%esp)
 804a8f1:	e8 3a 9e 00 00       	call   8054730 <tempnam>
 804a8f6:	85 c0                	test   %eax,%eax
 804a8f8:	89 43 40             	mov    %eax,0x40(%ebx)
 804a8fb:	74 33                	je     804a930 <main+0xd10>
 804a8fd:	c7 44 24 08 a4 01 00 	movl   $0x1a4,0x8(%esp)
 804a904:	00 
 804a905:	c7 44 24 04 01 05 00 	movl   $0x501,0x4(%esp)
 804a90c:	00 
 804a90d:	89 04 24             	mov    %eax,(%esp)
 804a910:	e8 bf f0 ff ff       	call   80499d4 <open@plt>
 804a915:	83 f8 ff             	cmp    $0xffffffff,%eax
 804a918:	89 43 44             	mov    %eax,0x44(%ebx)
 804a91b:	74 13                	je     804a930 <main+0xd10>
 804a91d:	c7 43 48 00 00 00 00 	movl   $0x0,0x48(%ebx)
 804a924:	31 c9                	xor    %ecx,%ecx
 804a926:	e9 75 fe ff ff       	jmp    804a7a0 <main+0xb80>
 804a92b:	90                   	nop
 804a92c:	8d 74 26 00          	lea    0x0(%esi,%eiz,1),%esi
 804a930:	89 da                	mov    %ebx,%edx
 804a932:	89 f8                	mov    %edi,%eax
 804a934:	e8 17 fa ff ff       	call   804a350 <main+0x730>
 804a939:	e9 a6 fe ff ff       	jmp    804a7e4 <main+0xbc4>
 804a93e:	66 90                	xchg   %ax,%ax
 804a940:	55                   	push   %ebp
 804a941:	89 e5                	mov    %esp,%ebp
 804a943:	57                   	push   %edi
 804a944:	56                   	push   %esi
 804a945:	89 ce                	mov    %ecx,%esi
 804a947:	53                   	push   %ebx
 804a948:	83 ec 2c             	sub    $0x2c,%esp
 804a94b:	85 c9                	test   %ecx,%ecx
 804a94d:	89 45 e0             	mov    %eax,-0x20(%ebp)
 804a950:	89 55 e4             	mov    %edx,-0x1c(%ebp)
 804a953:	0f 84 cf 00 00 00    	je     804aa28 <main+0xe08>
 804a959:	8b 42 34             	mov    0x34(%edx),%eax
 804a95c:	83 c2 2c             	add    $0x2c,%edx
 804a95f:	31 db                	xor    %ebx,%ebx
 804a961:	89 55 dc             	mov    %edx,-0x24(%ebp)
 804a964:	eb 15                	jmp    804a97b <main+0xd5b>
 804a966:	8d 76 00             	lea    0x0(%esi),%esi
 804a969:	8d bc 27 00 00 00 00 	lea    0x0(%edi,%eiz,1),%edi
 804a970:	83 c3 01             	add    $0x1,%ebx
 804a973:	39 de                	cmp    %ebx,%esi
 804a975:	0f 86 a5 00 00 00    	jbe    804aa20 <main+0xe00>
 804a97b:	89 da                	mov    %ebx,%edx
 804a97d:	01 c2                	add    %eax,%edx
 804a97f:	74 ef                	je     804a970 <main+0xd50>
 804a981:	8b 7d e4             	mov    -0x1c(%ebp),%edi
 804a984:	8b 4f 30             	mov    0x30(%edi),%ecx
 804a987:	8d 7c 11 ff          	lea    -0x1(%ecx,%edx,1),%edi
 804a98b:	80 3f 0d             	cmpb   $0xd,(%edi)
 804a98e:	75 e0                	jne    804a970 <main+0xd50>
 804a990:	80 3c 11 0a          	cmpb   $0xa,(%ecx,%edx,1)
 804a994:	75 da                	jne    804a970 <main+0xd50>
 804a996:	c6 07 00             	movb   $0x0,(%edi)
 804a999:	8b 55 e4             	mov    -0x1c(%ebp),%edx
 804a99c:	8b 42 34             	mov    0x34(%edx),%eax
 804a99f:	89 d1                	mov    %edx,%ecx
 804a9a1:	8b 52 30             	mov    0x30(%edx),%edx
 804a9a4:	01 da                	add    %ebx,%edx
 804a9a6:	c6 04 02 00          	movb   $0x0,(%edx,%eax,1)
 804a9aa:	8b 41 34             	mov    0x34(%ecx),%eax
 804a9ad:	8d 14 03             	lea    (%ebx,%eax,1),%edx
 804a9b0:	83 fa 02             	cmp    $0x2,%edx
 804a9b3:	0f 86 c7 00 00 00    	jbe    804aa80 <main+0xe60>
 804a9b9:	8b 7d e4             	mov    -0x1c(%ebp),%edi
 804a9bc:	8b 4f 30             	mov    0x30(%edi),%ecx
 804a9bf:	80 7c 11 fd 00       	cmpb   $0x0,-0x3(%ecx,%edx,1)
 804a9c4:	74 6a                	je     804aa30 <main+0xe10>
 804a9c6:	83 ea 02             	sub    $0x2,%edx
 804a9c9:	89 54 24 08          	mov    %edx,0x8(%esp)
 804a9cd:	89 0c 24             	mov    %ecx,(%esp)
 804a9d0:	c7 44 24 04 00 00 00 	movl   $0x0,0x4(%esp)
 804a9d7:	00 
 804a9d8:	e8 23 44 00 00       	call   804ee00 <main+0x51e0>
 804a9dd:	c7 44 24 08 10 00 00 	movl   $0x10,0x8(%esp)
 804a9e4:	00 
 804a9e5:	c7 44 24 04 fa 4b 05 	movl   $0x8054bfa,0x4(%esp)
 804a9ec:	08 
 804a9ed:	89 c7                	mov    %eax,%edi
 804a9ef:	8d 40 01             	lea    0x1(%eax),%eax
 804a9f2:	89 04 24             	mov    %eax,(%esp)
 804a9f5:	e8 1a ec ff ff       	call   8049614 <strncasecmp@plt>
 804a9fa:	85 c0                	test   %eax,%eax
 804a9fc:	0f 84 8e 00 00 00    	je     804aa90 <main+0xe70>
 804aa02:	8b 55 e4             	mov    -0x1c(%ebp),%edx
 804aa05:	83 c3 01             	add    $0x1,%ebx
 804aa08:	39 de                	cmp    %ebx,%esi
 804aa0a:	8b 42 34             	mov    0x34(%edx),%eax
 804aa0d:	0f 87 68 ff ff ff    	ja     804a97b <main+0xd5b>
 804aa13:	8d b6 00 00 00 00    	lea    0x0(%esi),%esi
 804aa19:	8d bc 27 00 00 00 00 	lea    0x0(%edi,%eiz,1),%edi
 804aa20:	8b 55 e4             	mov    -0x1c(%ebp),%edx
 804aa23:	01 f0                	add    %esi,%eax
 804aa25:	89 42 34             	mov    %eax,0x34(%edx)
 804aa28:	83 c4 2c             	add    $0x2c,%esp
 804aa2b:	5b                   	pop    %ebx
 804aa2c:	5e                   	pop    %esi
 804aa2d:	5f                   	pop    %edi
 804aa2e:	5d                   	pop    %ebp
 804aa2f:	c3                   	ret    
 804aa30:	80 7c 11 fe 00       	cmpb   $0x0,-0x2(%ecx,%edx,1)
 804aa35:	75 8f                	jne    804a9c6 <main+0xda6>
 804aa37:	39 de                	cmp    %ebx,%esi
 804aa39:	76 e5                	jbe    804aa20 <main+0xe00>
 804aa3b:	8b 4d e4             	mov    -0x1c(%ebp),%ecx
 804aa3e:	83 c2 01             	add    $0x1,%edx
 804aa41:	8b 79 2c             	mov    0x2c(%ecx),%edi
 804aa44:	89 51 34             	mov    %edx,0x34(%ecx)
 804aa47:	85 ff                	test   %edi,%edi
 804aa49:	7e 76                	jle    804aac1 <main+0xea1>
 804aa4b:	8b 7d e4             	mov    -0x1c(%ebp),%edi
 804aa4e:	f7 d3                	not    %ebx
 804aa50:	8d 34 33             	lea    (%ebx,%esi,1),%esi
 804aa53:	c7 41 28 03 00 00 00 	movl   $0x3,0x28(%ecx)
 804aa5a:	89 d1                	mov    %edx,%ecx
 804aa5c:	03 4f 30             	add    0x30(%edi),%ecx
 804aa5f:	89 fa                	mov    %edi,%edx
 804aa61:	89 34 24             	mov    %esi,(%esp)
 804aa64:	8b 45 e0             	mov    -0x20(%ebp),%eax
 804aa67:	e8 04 fd ff ff       	call   804a770 <main+0xb50>
 804aa6c:	83 c4 2c             	add    $0x2c,%esp
 804aa6f:	5b                   	pop    %ebx
 804aa70:	5e                   	pop    %esi
 804aa71:	5f                   	pop    %edi
 804aa72:	5d                   	pop    %ebp
 804aa73:	c3                   	ret    
 804aa74:	8d b6 00 00 00 00    	lea    0x0(%esi),%esi
 804aa7a:	8d bf 00 00 00 00    	lea    0x0(%edi),%edi
 804aa80:	8b 7d e4             	mov    -0x1c(%ebp),%edi
 804aa83:	8b 4f 30             	mov    0x30(%edi),%ecx
 804aa86:	e9 3b ff ff ff       	jmp    804a9c6 <main+0xda6>
 804aa8b:	90                   	nop
 804aa8c:	8d 74 26 00          	lea    0x0(%esi,%eiz,1),%esi
 804aa90:	8b 4d dc             	mov    -0x24(%ebp),%ecx
 804aa93:	83 c7 11             	add    $0x11,%edi
 804aa96:	c7 44 24 04 0b 4c 05 	movl   $0x8054c0b,0x4(%esp)
 804aa9d:	08 
 804aa9e:	89 3c 24             	mov    %edi,(%esp)
 804aaa1:	89 4c 24 08          	mov    %ecx,0x8(%esp)
 804aaa5:	e8 2a ed ff ff       	call   80497d4 <sscanf@plt>
 804aaaa:	83 f8 01             	cmp    $0x1,%eax
 804aaad:	74 24                	je     804aad3 <main+0xeb3>
 804aaaf:	8b 45 e4             	mov    -0x1c(%ebp),%eax
 804aab2:	c7 40 2c ff ff ff ff 	movl   $0xffffffff,0x2c(%eax)
 804aab9:	8b 40 34             	mov    0x34(%eax),%eax
 804aabc:	e9 af fe ff ff       	jmp    804a970 <main+0xd50>
 804aac1:	8b 55 e4             	mov    -0x1c(%ebp),%edx
 804aac4:	8b 45 e0             	mov    -0x20(%ebp),%eax
 804aac7:	83 c4 2c             	add    $0x2c,%esp
 804aaca:	5b                   	pop    %ebx
 804aacb:	5e                   	pop    %esi
 804aacc:	5f                   	pop    %edi
 804aacd:	5d                   	pop    %ebp
 804aace:	e9 dd fb ff ff       	jmp    804a6b0 <main+0xa90>
 804aad3:	8b 7d e4             	mov    -0x1c(%ebp),%edi
 804aad6:	8b 47 34             	mov    0x34(%edi),%eax
 804aad9:	e9 92 fe ff ff       	jmp    804a970 <main+0xd50>
 804aade:	66 90                	xchg   %ax,%ax
 804aae0:	55                   	push   %ebp
 804aae1:	89 e5                	mov    %esp,%ebp
 804aae3:	57                   	push   %edi
 804aae4:	56                   	push   %esi
 804aae5:	89 c6                	mov    %eax,%esi
 804aae7:	53                   	push   %ebx
 804aae8:	89 d3                	mov    %edx,%ebx
 804aaea:	83 ec 4c             	sub    $0x4c,%esp
 804aaed:	8b 52 28             	mov    0x28(%edx),%edx
 804aaf0:	85 d2                	test   %edx,%edx
 804aaf2:	0f 84 f8 00 00 00    	je     804abf0 <main+0xfd0>
 804aaf8:	c7 45 d0 04 00 00 00 	movl   $0x4,-0x30(%ebp)
 804aaff:	8b 40 04             	mov    0x4(%eax),%eax
 804ab02:	8d 7d d0             	lea    -0x30(%ebp),%edi
 804ab05:	66 c7 45 de ff ff    	movw   $0xffff,-0x22(%ebp)
 804ab0b:	89 5d d8             	mov    %ebx,-0x28(%ebp)
 804ab0e:	66 c7 45 dc 01 00    	movw   $0x1,-0x24(%ebp)
 804ab14:	89 45 d4             	mov    %eax,-0x2c(%ebp)
 804ab17:	eb 1b                	jmp    804ab34 <main+0xf14>
 804ab19:	8d b4 26 00 00 00 00 	lea    0x0(%esi,%eiz,1),%esi
 804ab20:	89 f0                	mov    %esi,%eax
 804ab22:	89 da                	mov    %ebx,%edx
 804ab24:	e8 27 f8 ff ff       	call   804a350 <main+0x730>
 804ab29:	8b 43 28             	mov    0x28(%ebx),%eax
 804ab2c:	85 c0                	test   %eax,%eax
 804ab2e:	0f 84 bc 00 00 00    	je     804abf0 <main+0xfd0>
 804ab34:	8b 43 24             	mov    0x24(%ebx),%eax
 804ab37:	89 7c 24 0c          	mov    %edi,0xc(%esp)
 804ab3b:	c7 44 24 08 00 00 00 	movl   $0x50000000,0x8(%esp)
 804ab42:	50 
 804ab43:	c7 44 24 04 03 00 00 	movl   $0x3,0x4(%esp)
 804ab4a:	00 
 804ab4b:	89 04 24             	mov    %eax,(%esp)
 804ab4e:	e8 11 ed ff ff       	call   8049864 <ionotify@plt>
 804ab53:	85 c0                	test   %eax,%eax
 804ab55:	0f 84 95 00 00 00    	je     804abf0 <main+0xfd0>
 804ab5b:	3d 00 00 00 10       	cmp    $0x10000000,%eax
 804ab60:	75 be                	jne    804ab20 <main+0xf00>
 804ab62:	8b 43 28             	mov    0x28(%ebx),%eax
 804ab65:	83 f8 02             	cmp    $0x2,%eax
 804ab68:	0f 84 e2 00 00 00    	je     804ac50 <main+0x1030>
 804ab6e:	83 f8 03             	cmp    $0x3,%eax
 804ab71:	0f 84 89 00 00 00    	je     804ac00 <main+0xfe0>
 804ab77:	83 f8 01             	cmp    $0x1,%eax
 804ab7a:	0f 84 20 01 00 00    	je     804aca0 <main+0x1080>
 804ab80:	8b 43 24             	mov    0x24(%ebx),%eax
 804ab83:	c7 44 24 0c 00 00 00 	movl   $0x0,0xc(%esp)
 804ab8a:	00 
 804ab8b:	c7 44 24 08 00 10 00 	movl   $0x1000,0x8(%esp)
 804ab92:	00 
 804ab93:	c7 44 24 04 00 7a 05 	movl   $0x8057a00,0x4(%esp)
 804ab9a:	08 
 804ab9b:	89 04 24             	mov    %eax,(%esp)
 804ab9e:	e8 71 ec ff ff       	call   8049814 <recv@plt>
 804aba3:	85 c0                	test   %eax,%eax
 804aba5:	0f 8e 75 ff ff ff    	jle    804ab20 <main+0xf00>
 804abab:	8d 45 e0             	lea    -0x20(%ebp),%eax
 804abae:	89 44 24 04          	mov    %eax,0x4(%esp)
 804abb2:	c7 04 24 02 00 00 00 	movl   $0x2,(%esp)
 804abb9:	e8 c6 e8 ff ff       	call   8049484 <clock_gettime@plt>
 804abbe:	8b 4d e4             	mov    -0x1c(%ebp),%ecx
 804abc1:	b8 83 de 1b 43       	mov    $0x431bde83,%eax
 804abc6:	c7 43 6c 00 00 00 00 	movl   $0x0,0x6c(%ebx)
 804abcd:	f7 e9                	imul   %ecx
 804abcf:	69 45 e0 e8 03 00 00 	imul   $0x3e8,-0x20(%ebp),%eax
 804abd6:	c1 f9 1f             	sar    $0x1f,%ecx
 804abd9:	c1 fa 12             	sar    $0x12,%edx
 804abdc:	29 ca                	sub    %ecx,%edx
 804abde:	01 c2                	add    %eax,%edx
 804abe0:	8b 43 28             	mov    0x28(%ebx),%eax
 804abe3:	89 53 68             	mov    %edx,0x68(%ebx)
 804abe6:	85 c0                	test   %eax,%eax
 804abe8:	0f 85 46 ff ff ff    	jne    804ab34 <main+0xf14>
 804abee:	66 90                	xchg   %ax,%ax
 804abf0:	83 c4 4c             	add    $0x4c,%esp
 804abf3:	5b                   	pop    %ebx
 804abf4:	5e                   	pop    %esi
 804abf5:	5f                   	pop    %edi
 804abf6:	5d                   	pop    %ebp
 804abf7:	c3                   	ret    
 804abf8:	90                   	nop
 804abf9:	8d b4 26 00 00 00 00 	lea    0x0(%esi,%eiz,1),%esi
 804ac00:	8b 43 24             	mov    0x24(%ebx),%eax
 804ac03:	c7 44 24 0c 00 00 00 	movl   $0x0,0xc(%esp)
 804ac0a:	00 
 804ac0b:	c7 44 24 08 00 10 00 	movl   $0x1000,0x8(%esp)
 804ac12:	00 
 804ac13:	c7 44 24 04 00 7a 05 	movl   $0x8057a00,0x4(%esp)
 804ac1a:	08 
 804ac1b:	89 04 24             	mov    %eax,(%esp)
 804ac1e:	e8 f1 eb ff ff       	call   8049814 <recv@plt>
 804ac23:	85 c0                	test   %eax,%eax
 804ac25:	0f 8e f5 fe ff ff    	jle    804ab20 <main+0xf00>
 804ac2b:	89 04 24             	mov    %eax,(%esp)
 804ac2e:	b9 00 7a 05 08       	mov    $0x8057a00,%ecx
 804ac33:	89 da                	mov    %ebx,%edx
 804ac35:	89 f0                	mov    %esi,%eax
 804ac37:	e8 34 fb ff ff       	call   804a770 <main+0xb50>
 804ac3c:	e9 6a ff ff ff       	jmp    804abab <main+0xf8b>
 804ac41:	eb 0d                	jmp    804ac50 <main+0x1030>
 804ac43:	90                   	nop
 804ac44:	90                   	nop
 804ac45:	90                   	nop
 804ac46:	90                   	nop
 804ac47:	90                   	nop
 804ac48:	90                   	nop
 804ac49:	90                   	nop
 804ac4a:	90                   	nop
 804ac4b:	90                   	nop
 804ac4c:	90                   	nop
 804ac4d:	90                   	nop
 804ac4e:	90                   	nop
 804ac4f:	90                   	nop
 804ac50:	89 da                	mov    %ebx,%edx
 804ac52:	89 f0                	mov    %esi,%eax
 804ac54:	e8 77 f7 ff ff       	call   804a3d0 <main+0x7b0>
 804ac59:	85 c0                	test   %eax,%eax
 804ac5b:	0f 84 1f ff ff ff    	je     804ab80 <main+0xf60>
 804ac61:	8b 53 34             	mov    0x34(%ebx),%edx
 804ac64:	8b 43 38             	mov    0x38(%ebx),%eax
 804ac67:	c7 44 24 0c 00 00 00 	movl   $0x0,0xc(%esp)
 804ac6e:	00 
 804ac6f:	29 d0                	sub    %edx,%eax
 804ac71:	89 44 24 08          	mov    %eax,0x8(%esp)
 804ac75:	8b 43 24             	mov    0x24(%ebx),%eax
 804ac78:	03 53 30             	add    0x30(%ebx),%edx
 804ac7b:	89 04 24             	mov    %eax,(%esp)
 804ac7e:	89 54 24 04          	mov    %edx,0x4(%esp)
 804ac82:	e8 8d eb ff ff       	call   8049814 <recv@plt>
 804ac87:	85 c0                	test   %eax,%eax
 804ac89:	0f 8e 91 fe ff ff    	jle    804ab20 <main+0xf00>
 804ac8f:	89 c1                	mov    %eax,%ecx
 804ac91:	89 da                	mov    %ebx,%edx
 804ac93:	89 f0                	mov    %esi,%eax
 804ac95:	e8 a6 fc ff ff       	call   804a940 <main+0xd20>
 804ac9a:	e9 0c ff ff ff       	jmp    804abab <main+0xf8b>
 804ac9f:	90                   	nop
 804aca0:	89 da                	mov    %ebx,%edx
 804aca2:	89 f0                	mov    %esi,%eax
 804aca4:	e8 27 f7 ff ff       	call   804a3d0 <main+0x7b0>
 804aca9:	85 c0                	test   %eax,%eax
 804acab:	0f 84 cf fe ff ff    	je     804ab80 <main+0xf60>
 804acb1:	8b 53 34             	mov    0x34(%ebx),%edx
 804acb4:	8b 43 38             	mov    0x38(%ebx),%eax
 804acb7:	c7 44 24 0c 00 00 00 	movl   $0x0,0xc(%esp)
 804acbe:	00 
 804acbf:	29 d0                	sub    %edx,%eax
 804acc1:	89 44 24 08          	mov    %eax,0x8(%esp)
 804acc5:	8b 43 24             	mov    0x24(%ebx),%eax
 804acc8:	03 53 30             	add    0x30(%ebx),%edx
 804accb:	89 04 24             	mov    %eax,(%esp)
 804acce:	89 54 24 04          	mov    %edx,0x4(%esp)
 804acd2:	e8 3d eb ff ff       	call   8049814 <recv@plt>
 804acd7:	85 c0                	test   %eax,%eax
 804acd9:	89 45 c4             	mov    %eax,-0x3c(%ebp)
 804acdc:	0f 8e 3e fe ff ff    	jle    804ab20 <main+0xf00>
 804ace2:	8b 43 34             	mov    0x34(%ebx),%eax
 804ace5:	31 d2                	xor    %edx,%edx
 804ace7:	89 75 bc             	mov    %esi,-0x44(%ebp)
 804acea:	89 45 c0             	mov    %eax,-0x40(%ebp)
 804aced:	eb 0c                	jmp    804acfb <main+0x10db>
 804acef:	90                   	nop
 804acf0:	83 c2 01             	add    $0x1,%edx
 804acf3:	83 c0 01             	add    $0x1,%eax
 804acf6:	39 55 c4             	cmp    %edx,-0x3c(%ebp)
 804acf9:	76 54                	jbe    804ad4f <main+0x112f>
 804acfb:	85 c0                	test   %eax,%eax
 804acfd:	74 f1                	je     804acf0 <main+0x10d0>
 804acff:	8b 73 30             	mov    0x30(%ebx),%esi
 804ad02:	8d 4c 06 ff          	lea    -0x1(%esi,%eax,1),%ecx
 804ad06:	80 39 0d             	cmpb   $0xd,(%ecx)
 804ad09:	75 e5                	jne    804acf0 <main+0x10d0>
 804ad0b:	80 3c 06 0a          	cmpb   $0xa,(%esi,%eax,1)
 804ad0f:	75 df                	jne    804acf0 <main+0x10d0>
 804ad11:	8b 75 bc             	mov    -0x44(%ebp),%esi
 804ad14:	c6 01 00             	movb   $0x0,(%ecx)
 804ad17:	8b 43 30             	mov    0x30(%ebx),%eax
 804ad1a:	8b 4b 34             	mov    0x34(%ebx),%ecx
 804ad1d:	01 d0                	add    %edx,%eax
 804ad1f:	c6 04 08 00          	movb   $0x0,(%eax,%ecx,1)
 804ad23:	39 55 c4             	cmp    %edx,-0x3c(%ebp)
 804ad26:	76 38                	jbe    804ad60 <main+0x1140>
 804ad28:	8b 43 34             	mov    0x34(%ebx),%eax
 804ad2b:	c7 43 28 02 00 00 00 	movl   $0x2,0x28(%ebx)
 804ad32:	8d 44 02 01          	lea    0x1(%edx,%eax,1),%eax
 804ad36:	f7 d2                	not    %edx
 804ad38:	89 43 34             	mov    %eax,0x34(%ebx)
 804ad3b:	8b 45 c4             	mov    -0x3c(%ebp),%eax
 804ad3e:	8d 0c 02             	lea    (%edx,%eax,1),%ecx
 804ad41:	89 da                	mov    %ebx,%edx
 804ad43:	89 f0                	mov    %esi,%eax
 804ad45:	e8 f6 fb ff ff       	call   804a940 <main+0xd20>
 804ad4a:	e9 5c fe ff ff       	jmp    804abab <main+0xf8b>
 804ad4f:	8b 75 bc             	mov    -0x44(%ebp),%esi
 804ad52:	8b 45 c0             	mov    -0x40(%ebp),%eax
 804ad55:	03 45 c4             	add    -0x3c(%ebp),%eax
 804ad58:	89 43 34             	mov    %eax,0x34(%ebx)
 804ad5b:	e9 4b fe ff ff       	jmp    804abab <main+0xf8b>
 804ad60:	8b 43 34             	mov    0x34(%ebx),%eax
 804ad63:	89 45 c0             	mov    %eax,-0x40(%ebp)
 804ad66:	eb ea                	jmp    804ad52 <main+0x1132>
 804ad68:	90                   	nop
 804ad69:	8d b4 26 00 00 00 00 	lea    0x0(%esi,%eiz,1),%esi
 804ad70:	55                   	push   %ebp
 804ad71:	89 e5                	mov    %esp,%ebp
 804ad73:	57                   	push   %edi
 804ad74:	56                   	push   %esi
 804ad75:	89 c6                	mov    %eax,%esi
 804ad77:	53                   	push   %ebx
 804ad78:	83 ec 6c             	sub    $0x6c,%esp
 804ad7b:	c7 45 cc 04 00 00 00 	movl   $0x4,-0x34(%ebp)
 804ad82:	8b 40 04             	mov    0x4(%eax),%eax
 804ad85:	8d 7d cc             	lea    -0x34(%ebp),%edi
 804ad88:	66 c7 45 da ff ff    	movw   $0xffff,-0x26(%ebp)
 804ad8e:	c7 45 d4 00 00 00 00 	movl   $0x0,-0x2c(%ebp)
 804ad95:	66 c7 45 d8 00 00    	movw   $0x0,-0x28(%ebp)
 804ad9b:	89 45 d0             	mov    %eax,-0x30(%ebp)
 804ad9e:	66 90                	xchg   %ax,%ax
 804ada0:	8b 46 08             	mov    0x8(%esi),%eax
 804ada3:	89 7c 24 0c          	mov    %edi,0xc(%esp)
 804ada7:	c7 44 24 08 00 00 00 	movl   $0x10000000,0x8(%esp)
 804adae:	10 
 804adaf:	c7 44 24 04 03 00 00 	movl   $0x3,0x4(%esp)
 804adb6:	00 
 804adb7:	89 04 24             	mov    %eax,(%esp)
 804adba:	e8 a5 ea ff ff       	call   8049864 <ionotify@plt>
 804adbf:	3d 00 00 00 10       	cmp    $0x10000000,%eax
 804adc4:	0f 85 06 01 00 00    	jne    804aed0 <main+0x12b0>
 804adca:	8d 45 e4             	lea    -0x1c(%ebp),%eax
 804adcd:	89 44 24 08          	mov    %eax,0x8(%esp)
 804add1:	8d 45 b0             	lea    -0x50(%ebp),%eax
 804add4:	89 44 24 04          	mov    %eax,0x4(%esp)
 804add8:	8b 46 08             	mov    0x8(%esi),%eax
 804addb:	c7 45 e4 1c 00 00 00 	movl   $0x1c,-0x1c(%ebp)
 804ade2:	89 04 24             	mov    %eax,(%esp)
 804ade5:	e8 8a e9 ff ff       	call   8049774 <accept@plt>
 804adea:	89 c2                	mov    %eax,%edx
 804adec:	8b 46 10             	mov    0x10(%esi),%eax
 804adef:	3b 46 0c             	cmp    0xc(%esi),%eax
 804adf2:	0f 83 c8 00 00 00    	jae    804aec0 <main+0x12a0>
 804adf8:	89 55 a4             	mov    %edx,-0x5c(%ebp)
 804adfb:	c7 44 24 04 80 00 00 	movl   $0x80,0x4(%esp)
 804ae02:	00 
 804ae03:	c7 04 24 01 00 00 00 	movl   $0x1,(%esp)
 804ae0a:	e8 55 e8 ff ff       	call   8049664 <calloc@plt>
 804ae0f:	8b 55 a4             	mov    -0x5c(%ebp),%edx
 804ae12:	85 c0                	test   %eax,%eax
 804ae14:	89 c3                	mov    %eax,%ebx
 804ae16:	0f 84 a4 00 00 00    	je     804aec0 <main+0x12a0>
 804ae1c:	8b 45 b0             	mov    -0x50(%ebp),%eax
 804ae1f:	83 46 10 01          	addl   $0x1,0x10(%esi)
 804ae23:	89 53 24             	mov    %edx,0x24(%ebx)
 804ae26:	89 43 08             	mov    %eax,0x8(%ebx)
 804ae29:	8b 45 b4             	mov    -0x4c(%ebp),%eax
 804ae2c:	c7 43 28 01 00 00 00 	movl   $0x1,0x28(%ebx)
 804ae33:	c7 04 24 02 00 00 00 	movl   $0x2,(%esp)
 804ae3a:	89 43 0c             	mov    %eax,0xc(%ebx)
 804ae3d:	8b 45 b8             	mov    -0x48(%ebp),%eax
 804ae40:	89 43 10             	mov    %eax,0x10(%ebx)
 804ae43:	8b 45 bc             	mov    -0x44(%ebp),%eax
 804ae46:	89 43 14             	mov    %eax,0x14(%ebx)
 804ae49:	8b 45 c0             	mov    -0x40(%ebp),%eax
 804ae4c:	89 43 18             	mov    %eax,0x18(%ebx)
 804ae4f:	8b 45 c4             	mov    -0x3c(%ebp),%eax
 804ae52:	89 43 1c             	mov    %eax,0x1c(%ebx)
 804ae55:	8b 45 c8             	mov    -0x38(%ebp),%eax
 804ae58:	89 43 20             	mov    %eax,0x20(%ebx)
 804ae5b:	8d 45 dc             	lea    -0x24(%ebp),%eax
 804ae5e:	89 44 24 04          	mov    %eax,0x4(%esp)
 804ae62:	e8 1d e6 ff ff       	call   8049484 <clock_gettime@plt>
 804ae67:	8b 4d e0             	mov    -0x20(%ebp),%ecx
 804ae6a:	b8 83 de 1b 43       	mov    $0x431bde83,%eax
 804ae6f:	c7 03 00 00 00 00    	movl   $0x0,(%ebx)
 804ae75:	c7 43 64 00 00 00 00 	movl   $0x0,0x64(%ebx)
 804ae7c:	c7 43 2c ff ff ff ff 	movl   $0xffffffff,0x2c(%ebx)
 804ae83:	f7 e9                	imul   %ecx
 804ae85:	69 45 dc e8 03 00 00 	imul   $0x3e8,-0x24(%ebp),%eax
 804ae8c:	c1 f9 1f             	sar    $0x1f,%ecx
 804ae8f:	c7 43 44 ff ff ff ff 	movl   $0xffffffff,0x44(%ebx)
 804ae96:	c1 fa 12             	sar    $0x12,%edx
 804ae99:	29 ca                	sub    %ecx,%edx
 804ae9b:	01 c2                	add    %eax,%edx
 804ae9d:	8b 46 5c             	mov    0x5c(%esi),%eax
 804aea0:	89 53 60             	mov    %edx,0x60(%ebx)
 804aea3:	89 da                	mov    %ebx,%edx
 804aea5:	89 5e 5c             	mov    %ebx,0x5c(%esi)
 804aea8:	89 43 04             	mov    %eax,0x4(%ebx)
 804aeab:	89 18                	mov    %ebx,(%eax)
 804aead:	89 f0                	mov    %esi,%eax
 804aeaf:	e8 2c fc ff ff       	call   804aae0 <main+0xec0>
 804aeb4:	e9 e7 fe ff ff       	jmp    804ada0 <main+0x1180>
 804aeb9:	8d b4 26 00 00 00 00 	lea    0x0(%esi,%eiz,1),%esi
 804aec0:	89 14 24             	mov    %edx,(%esp)
 804aec3:	e8 7c eb ff ff       	call   8049a44 <close@plt>
 804aec8:	e9 d3 fe ff ff       	jmp    804ada0 <main+0x1180>
 804aecd:	8d 76 00             	lea    0x0(%esi),%esi
 804aed0:	83 c4 6c             	add    $0x6c,%esp
 804aed3:	5b                   	pop    %ebx
 804aed4:	5e                   	pop    %esi
 804aed5:	5f                   	pop    %edi
 804aed6:	5d                   	pop    %ebp
 804aed7:	c3                   	ret    
 804aed8:	90                   	nop
 804aed9:	8d b4 26 00 00 00 00 	lea    0x0(%esi,%eiz,1),%esi
 804aee0:	55                   	push   %ebp
 804aee1:	89 e5                	mov    %esp,%ebp
 804aee3:	57                   	push   %edi
 804aee4:	56                   	push   %esi
 804aee5:	53                   	push   %ebx
 804aee6:	81 ec 7c 02 00 00    	sub    $0x27c,%esp
 804aeec:	c7 04 24 a8 00 00 00 	movl   $0xa8,(%esp)
 804aef3:	8d b5 dc fd ff ff    	lea    -0x224(%ebp),%esi
 804aef9:	e8 b6 e6 ff ff       	call   80495b4 <malloc@plt>
 804aefe:	89 f7                	mov    %esi,%edi
 804af00:	b9 5e 00 00 00       	mov    $0x5e,%ecx
 804af05:	89 c3                	mov    %eax,%ebx
 804af07:	31 c0                	xor    %eax,%eax
 804af09:	f3 ab                	rep stos %eax,%es:(%edi)
 804af0b:	c7 04 24 00 00 00 00 	movl   $0x0,(%esp)
 804af12:	e8 7d e9 ff ff       	call   8049894 <ChannelCreate@plt>
 804af17:	83 f8 ff             	cmp    $0xffffffff,%eax
 804af1a:	89 c7                	mov    %eax,%edi
 804af1c:	0f 84 0e 07 00 00    	je     804b630 <main+0x1a10>
 804af22:	89 85 dc fd ff ff    	mov    %eax,-0x224(%ebp)
 804af28:	e8 17 e6 ff ff       	call   8049544 <getpid@plt>
 804af2d:	c7 44 24 10 01 00 00 	movl   $0x1,0x10(%esp)
 804af34:	00 
 804af35:	c7 44 24 0c 00 00 00 	movl   $0x40000000,0xc(%esp)
 804af3c:	40 
 804af3d:	89 7c 24 08          	mov    %edi,0x8(%esp)
 804af41:	c7 04 24 00 00 00 00 	movl   $0x0,(%esp)
 804af48:	89 44 24 04          	mov    %eax,0x4(%esp)
 804af4c:	e8 63 e8 ff ff       	call   80497b4 <ConnectAttach@plt>
 804af51:	83 f8 ff             	cmp    $0xffffffff,%eax
 804af54:	0f 84 d6 06 00 00    	je     804b630 <main+0x1a10>
 804af5a:	89 85 e0 fd ff ff    	mov    %eax,-0x220(%ebp)
 804af60:	8b 45 0c             	mov    0xc(%ebp),%eax
 804af63:	c7 44 24 10 01 00 00 	movl   $0x1,0x10(%esp)
 804af6a:	00 
 804af6b:	c7 44 24 0c 00 00 00 	movl   $0x40000000,0xc(%esp)
 804af72:	40 
 804af73:	c7 04 24 00 00 00 00 	movl   $0x0,(%esp)
 804af7a:	89 44 24 08          	mov    %eax,0x8(%esp)
 804af7e:	8b 45 08             	mov    0x8(%ebp),%eax
 804af81:	89 44 24 04          	mov    %eax,0x4(%esp)
 804af85:	e8 2a e8 ff ff       	call   80497b4 <ConnectAttach@plt>
 804af8a:	83 f8 ff             	cmp    $0xffffffff,%eax
 804af8d:	89 c7                	mov    %eax,%edi
 804af8f:	0f 84 9b 06 00 00    	je     804b630 <main+0x1a10>
 804af95:	8b 95 dc fd ff ff    	mov    -0x224(%ebp),%edx
 804af9b:	c7 04 24 00 00 00 00 	movl   $0x0,(%esp)
 804afa2:	89 95 ac fd ff ff    	mov    %edx,-0x254(%ebp)
 804afa8:	e8 e7 e7 ff ff       	call   8049794 <getprio@plt>
 804afad:	8b 95 ac fd ff ff    	mov    -0x254(%ebp),%edx
 804afb3:	c7 44 24 08 00 00 00 	movl   $0x0,0x8(%esp)
 804afba:	00 
 804afbb:	89 3c 24             	mov    %edi,(%esp)
 804afbe:	89 54 24 0c          	mov    %edx,0xc(%esp)
 804afc2:	89 44 24 04          	mov    %eax,0x4(%esp)
 804afc6:	e8 79 e6 ff ff       	call   8049644 <MsgSendPulse@plt>
 804afcb:	83 f8 ff             	cmp    $0xffffffff,%eax
 804afce:	0f 84 5c 06 00 00    	je     804b630 <main+0x1a10>
 804afd4:	89 3c 24             	mov    %edi,(%esp)
 804afd7:	e8 d8 e6 ff ff       	call   80496b4 <ConnectDetach@plt>
 804afdc:	a1 3c 8e 05 08       	mov    0x8058e3c,%eax
 804afe1:	89 44 24 08          	mov    %eax,0x8(%esp)
 804afe5:	a1 44 8e 05 08       	mov    0x8058e44,%eax
 804afea:	89 44 24 04          	mov    %eax,0x4(%esp)
 804afee:	8d 85 10 fe ff ff    	lea    -0x1f0(%ebp),%eax
 804aff4:	89 04 24             	mov    %eax,(%esp)
 804aff7:	e8 04 2f 00 00       	call   804df00 <main+0x42e0>
 804affc:	8d 85 34 fe ff ff    	lea    -0x1cc(%ebp),%eax
 804b002:	89 85 38 fe ff ff    	mov    %eax,-0x1c8(%ebp)
 804b008:	8d 85 44 fe ff ff    	lea    -0x1bc(%ebp),%eax
 804b00e:	89 85 48 fe ff ff    	mov    %eax,-0x1b8(%ebp)
 804b014:	8d 85 4c fe ff ff    	lea    -0x1b4(%ebp),%eax
 804b01a:	89 85 50 fe ff ff    	mov    %eax,-0x1b0(%ebp)
 804b020:	a1 40 8e 05 08       	mov    0x8058e40,%eax
 804b025:	8d 95 3c fe ff ff    	lea    -0x1c4(%ebp),%edx
 804b02b:	89 95 40 fe ff ff    	mov    %edx,-0x1c0(%ebp)
 804b031:	c7 85 30 fe ff ff 00 	movl   $0x0,-0x1d0(%ebp)
 804b038:	00 00 00 
 804b03b:	c7 85 34 fe ff ff 00 	movl   $0x0,-0x1cc(%ebp)
 804b042:	00 00 00 
 804b045:	c7 85 3c fe ff ff 00 	movl   $0x0,-0x1c4(%ebp)
 804b04c:	00 00 00 
 804b04f:	c7 85 44 fe ff ff 00 	movl   $0x0,-0x1bc(%ebp)
 804b056:	00 00 00 
 804b059:	c7 85 4c fe ff ff 00 	movl   $0x0,-0x1b4(%ebp)
 804b060:	00 00 00 
 804b063:	c7 44 24 08 05 00 00 	movl   $0x5,0x8(%esp)
 804b06a:	00 
 804b06b:	c7 44 24 04 0e 4c 05 	movl   $0x8054c0e,0x4(%esp)
 804b072:	08 
 804b073:	89 04 24             	mov    %eax,(%esp)
 804b076:	e8 75 24 00 00       	call   804d4f0 <main+0x38d0>
 804b07b:	c7 44 24 08 05 00 00 	movl   $0x5,0x8(%esp)
 804b082:	00 
 804b083:	c7 44 24 04 1b 4c 05 	movl   $0x8054c1b,0x4(%esp)
 804b08a:	08 
 804b08b:	69 c0 e8 03 00 00    	imul   $0x3e8,%eax,%eax
 804b091:	89 85 00 fe ff ff    	mov    %eax,-0x200(%ebp)
 804b097:	a1 40 8e 05 08       	mov    0x8058e40,%eax
 804b09c:	89 04 24             	mov    %eax,(%esp)
 804b09f:	e8 4c 24 00 00       	call   804d4f0 <main+0x38d0>
 804b0a4:	c7 44 24 08 05 00 00 	movl   $0x5,0x8(%esp)
 804b0ab:	00 
 804b0ac:	c7 44 24 04 28 4c 05 	movl   $0x8054c28,0x4(%esp)
 804b0b3:	08 
 804b0b4:	69 c0 e8 03 00 00    	imul   $0x3e8,%eax,%eax
 804b0ba:	89 85 04 fe ff ff    	mov    %eax,-0x1fc(%ebp)
 804b0c0:	a1 40 8e 05 08       	mov    0x8058e40,%eax
 804b0c5:	89 04 24             	mov    %eax,(%esp)
 804b0c8:	e8 23 24 00 00       	call   804d4f0 <main+0x38d0>
 804b0cd:	c7 44 24 08 05 00 00 	movl   $0x5,0x8(%esp)
 804b0d4:	00 
 804b0d5:	c7 44 24 04 38 4c 05 	movl   $0x8054c38,0x4(%esp)
 804b0dc:	08 
 804b0dd:	69 c0 e8 03 00 00    	imul   $0x3e8,%eax,%eax
 804b0e3:	89 85 08 fe ff ff    	mov    %eax,-0x1f8(%ebp)
 804b0e9:	a1 40 8e 05 08       	mov    0x8058e40,%eax
 804b0ee:	89 04 24             	mov    %eax,(%esp)
 804b0f1:	e8 fa 23 00 00       	call   804d4f0 <main+0x38d0>
 804b0f6:	c7 44 24 08 e8 03 00 	movl   $0x3e8,0x8(%esp)
 804b0fd:	00 
 804b0fe:	c7 44 24 04 49 4c 05 	movl   $0x8054c49,0x4(%esp)
 804b105:	08 
 804b106:	69 c0 e8 03 00 00    	imul   $0x3e8,%eax,%eax
 804b10c:	89 85 0c fe ff ff    	mov    %eax,-0x1f4(%ebp)
 804b112:	a1 40 8e 05 08       	mov    0x8058e40,%eax
 804b117:	89 04 24             	mov    %eax,(%esp)
 804b11a:	e8 d1 23 00 00       	call   804d4f0 <main+0x38d0>
 804b11f:	c7 44 24 08 00 00 10 	movl   $0x100000,0x8(%esp)
 804b126:	00 
 804b127:	c7 44 24 04 52 4c 05 	movl   $0x8054c52,0x4(%esp)
 804b12e:	08 
 804b12f:	89 85 e8 fd ff ff    	mov    %eax,-0x218(%ebp)
 804b135:	a1 40 8e 05 08       	mov    0x8058e40,%eax
 804b13a:	89 04 24             	mov    %eax,(%esp)
 804b13d:	e8 ae 23 00 00       	call   804d4f0 <main+0x38d0>
 804b142:	c7 44 24 08 89 4d 05 	movl   $0x8054d89,0x8(%esp)
 804b149:	08 
 804b14a:	c7 44 24 04 6e 4b 05 	movl   $0x8054b6e,0x4(%esp)
 804b151:	08 
 804b152:	89 85 f0 fd ff ff    	mov    %eax,-0x210(%ebp)
 804b158:	a1 40 8e 05 08       	mov    0x8058e40,%eax
 804b15d:	89 04 24             	mov    %eax,(%esp)
 804b160:	e8 5b 23 00 00       	call   804d4c0 <main+0x38a0>
 804b165:	89 04 24             	mov    %eax,(%esp)
 804b168:	89 85 f4 fd ff ff    	mov    %eax,-0x20c(%ebp)
 804b16e:	e8 51 e8 ff ff       	call   80499c4 <strlen@plt>
 804b173:	c7 44 24 08 89 4d 05 	movl   $0x8054d89,0x8(%esp)
 804b17a:	08 
 804b17b:	c7 44 24 04 62 4c 05 	movl   $0x8054c62,0x4(%esp)
 804b182:	08 
 804b183:	89 c7                	mov    %eax,%edi
 804b185:	a1 40 8e 05 08       	mov    0x8058e40,%eax
 804b18a:	89 04 24             	mov    %eax,(%esp)
 804b18d:	e8 2e 23 00 00       	call   804d4c0 <main+0x38a0>
 804b192:	89 04 24             	mov    %eax,(%esp)
 804b195:	e8 2a e8 ff ff       	call   80499c4 <strlen@plt>
 804b19a:	8d 44 07 01          	lea    0x1(%edi,%eax,1),%eax
 804b19e:	89 04 24             	mov    %eax,(%esp)
 804b1a1:	e8 0e e4 ff ff       	call   80495b4 <malloc@plt>
 804b1a6:	85 c0                	test   %eax,%eax
 804b1a8:	0f 84 82 04 00 00    	je     804b630 <main+0x1a10>
 804b1ae:	89 85 f8 fd ff ff    	mov    %eax,-0x208(%ebp)
 804b1b4:	a1 40 8e 05 08       	mov    0x8058e40,%eax
 804b1b9:	c7 44 24 08 89 4d 05 	movl   $0x8054d89,0x8(%esp)
 804b1c0:	08 
 804b1c1:	c7 44 24 04 62 4c 05 	movl   $0x8054c62,0x4(%esp)
 804b1c8:	08 
 804b1c9:	89 04 24             	mov    %eax,(%esp)
 804b1cc:	e8 ef 22 00 00       	call   804d4c0 <main+0x38a0>
 804b1d1:	c7 44 24 04 6d 4c 05 	movl   $0x8054c6d,0x4(%esp)
 804b1d8:	08 
 804b1d9:	89 44 24 0c          	mov    %eax,0xc(%esp)
 804b1dd:	8b 85 f4 fd ff ff    	mov    -0x20c(%ebp),%eax
 804b1e3:	89 44 24 08          	mov    %eax,0x8(%esp)
 804b1e7:	8b 85 f8 fd ff ff    	mov    -0x208(%ebp),%eax
 804b1ed:	89 04 24             	mov    %eax,(%esp)
 804b1f0:	e8 0f e7 ff ff       	call   8049904 <sprintf@plt>
 804b1f5:	8b 85 e0 fd ff ff    	mov    -0x220(%ebp),%eax
 804b1fb:	c7 45 bc 04 00 00 00 	movl   $0x4,-0x44(%ebp)
 804b202:	66 c7 45 ca ff ff    	movw   $0xffff,-0x36(%ebp)
 804b208:	c7 45 c4 00 00 00 00 	movl   $0x0,-0x3c(%ebp)
 804b20f:	89 45 c0             	mov    %eax,-0x40(%ebp)
 804b212:	8d 85 fc fd ff ff    	lea    -0x204(%ebp),%eax
 804b218:	89 44 24 08          	mov    %eax,0x8(%esp)
 804b21c:	8d 45 bc             	lea    -0x44(%ebp),%eax
 804b21f:	66 c7 45 c8 03 00    	movw   $0x3,-0x38(%ebp)
 804b225:	89 44 24 04          	mov    %eax,0x4(%esp)
 804b229:	c7 04 24 00 00 00 00 	movl   $0x0,(%esp)
 804b230:	e8 ef e2 ff ff       	call   8049524 <timer_create@plt>
 804b235:	83 f8 ff             	cmp    $0xffffffff,%eax
 804b238:	0f 84 f2 03 00 00    	je     804b630 <main+0x1a10>
 804b23e:	8d 45 cc             	lea    -0x34(%ebp),%eax
 804b241:	89 44 24 08          	mov    %eax,0x8(%esp)
 804b245:	8b 85 fc fd ff ff    	mov    -0x204(%ebp),%eax
 804b24b:	c7 45 cc 01 00 00 00 	movl   $0x1,-0x34(%ebp)
 804b252:	c7 45 d0 00 00 00 00 	movl   $0x0,-0x30(%ebp)
 804b259:	c7 45 d4 01 00 00 00 	movl   $0x1,-0x2c(%ebp)
 804b260:	c7 45 d8 00 00 00 00 	movl   $0x0,-0x28(%ebp)
 804b267:	c7 44 24 0c 00 00 00 	movl   $0x0,0xc(%esp)
 804b26e:	00 
 804b26f:	c7 44 24 04 00 00 00 	movl   $0x0,0x4(%esp)
 804b276:	00 
 804b277:	89 04 24             	mov    %eax,(%esp)
 804b27a:	e8 95 e7 ff ff       	call   8049a14 <timer_settime@plt>
 804b27f:	83 f8 ff             	cmp    $0xffffffff,%eax
 804b282:	0f 84 a8 03 00 00    	je     804b630 <main+0x1a10>
 804b288:	a1 40 8e 05 08       	mov    0x8058e40,%eax
 804b28d:	c7 44 24 08 89 4d 05 	movl   $0x8054d89,0x8(%esp)
 804b294:	08 
 804b295:	c7 44 24 04 73 4c 05 	movl   $0x8054c73,0x4(%esp)
 804b29c:	08 
 804b29d:	89 04 24             	mov    %eax,(%esp)
 804b2a0:	e8 1b 22 00 00       	call   804d4c0 <main+0x38a0>
 804b2a5:	85 c0                	test   %eax,%eax
 804b2a7:	74 38                	je     804b2e1 <main+0x16c1>
 804b2a9:	c7 44 24 04 11 4e 05 	movl   $0x8054e11,0x4(%esp)
 804b2b0:	08 
 804b2b1:	89 04 24             	mov    %eax,(%esp)
 804b2b4:	e8 7b e5 ff ff       	call   8049834 <fopen@plt>
 804b2b9:	85 c0                	test   %eax,%eax
 804b2bb:	89 c7                	mov    %eax,%edi
 804b2bd:	74 22                	je     804b2e1 <main+0x16c1>
 804b2bf:	89 44 24 08          	mov    %eax,0x8(%esp)
 804b2c3:	8d 85 54 fe ff ff    	lea    -0x1ac(%ebp),%eax
 804b2c9:	c7 44 24 04 80 00 00 	movl   $0x80,0x4(%esp)
 804b2d0:	00 
 804b2d1:	89 04 24             	mov    %eax,(%esp)
 804b2d4:	e8 8b e2 ff ff       	call   8049564 <fgets@plt>
 804b2d9:	89 3c 24             	mov    %edi,(%esp)
 804b2dc:	e8 a3 e5 ff ff       	call   8049884 <fclose@plt>
 804b2e1:	a1 40 8e 05 08       	mov    0x8058e40,%eax
 804b2e6:	c7 44 24 08 89 4d 05 	movl   $0x8054d89,0x8(%esp)
 804b2ed:	08 
 804b2ee:	c7 44 24 04 7e 4c 05 	movl   $0x8054c7e,0x4(%esp)
 804b2f5:	08 
 804b2f6:	89 04 24             	mov    %eax,(%esp)
 804b2f9:	e8 c2 21 00 00       	call   804d4c0 <main+0x38a0>
 804b2fe:	85 c0                	test   %eax,%eax
 804b300:	74 38                	je     804b33a <main+0x171a>
 804b302:	c7 44 24 04 11 4e 05 	movl   $0x8054e11,0x4(%esp)
 804b309:	08 
 804b30a:	89 04 24             	mov    %eax,(%esp)
 804b30d:	e8 22 e5 ff ff       	call   8049834 <fopen@plt>
 804b312:	85 c0                	test   %eax,%eax
 804b314:	89 c7                	mov    %eax,%edi
 804b316:	74 22                	je     804b33a <main+0x171a>
 804b318:	89 44 24 08          	mov    %eax,0x8(%esp)
 804b31c:	8d 85 d4 fe ff ff    	lea    -0x12c(%ebp),%eax
 804b322:	c7 44 24 04 80 00 00 	movl   $0x80,0x4(%esp)
 804b329:	00 
 804b32a:	89 04 24             	mov    %eax,(%esp)
 804b32d:	e8 32 e2 ff ff       	call   8049564 <fgets@plt>
 804b332:	89 3c 24             	mov    %edi,(%esp)
 804b335:	e8 4a e5 ff ff       	call   8049884 <fclose@plt>
 804b33a:	a1 40 8e 05 08       	mov    0x8058e40,%eax
 804b33f:	c7 44 24 08 50 00 00 	movl   $0x50,0x8(%esp)
 804b346:	00 
 804b347:	c7 44 24 04 be 4c 05 	movl   $0x8054cbe,0x4(%esp)
 804b34e:	08 
 804b34f:	89 04 24             	mov    %eax,(%esp)
 804b352:	e8 99 21 00 00       	call   804d4f0 <main+0x38d0>
 804b357:	31 d2                	xor    %edx,%edx
 804b359:	c7 44 15 a0 00 00 00 	movl   $0x0,-0x60(%ebp,%edx,1)
 804b360:	00 
 804b361:	83 c2 04             	add    $0x4,%edx
 804b364:	83 fa 1c             	cmp    $0x1c,%edx
 804b367:	72 f0                	jb     804b359 <main+0x1739>
 804b369:	8b 15 80 78 05 08    	mov    0x8057880,%edx
 804b36f:	c6 45 a1 18          	movb   $0x18,-0x5f(%ebp)
 804b373:	89 55 a8             	mov    %edx,-0x58(%ebp)
 804b376:	8b 15 84 78 05 08    	mov    0x8057884,%edx
 804b37c:	89 55 ac             	mov    %edx,-0x54(%ebp)
 804b37f:	8b 15 88 78 05 08    	mov    0x8057888,%edx
 804b385:	89 55 b0             	mov    %edx,-0x50(%ebp)
 804b388:	8b 15 8c 78 05 08    	mov    0x805788c,%edx
 804b38e:	89 55 b4             	mov    %edx,-0x4c(%ebp)
 804b391:	86 c4                	xchg   %al,%ah
 804b393:	66 89 45 a2          	mov    %ax,-0x5e(%ebp)
 804b397:	c7 44 24 08 06 00 00 	movl   $0x6,0x8(%esp)
 804b39e:	00 
 804b39f:	c7 44 24 04 01 00 00 	movl   $0x1,0x4(%esp)
 804b3a6:	00 
 804b3a7:	c7 04 24 18 00 00 00 	movl   $0x18,(%esp)
 804b3ae:	e8 81 e5 ff ff       	call   8049934 <socket@plt>
 804b3b3:	83 f8 ff             	cmp    $0xffffffff,%eax
 804b3b6:	89 c7                	mov    %eax,%edi
 804b3b8:	0f 84 72 02 00 00    	je     804b630 <main+0x1a10>
 804b3be:	8d 4d e4             	lea    -0x1c(%ebp),%ecx
 804b3c1:	c7 45 e4 01 00 00 00 	movl   $0x1,-0x1c(%ebp)
 804b3c8:	c7 44 24 10 04 00 00 	movl   $0x4,0x10(%esp)
 804b3cf:	00 
 804b3d0:	89 4c 24 0c          	mov    %ecx,0xc(%esp)
 804b3d4:	c7 44 24 08 04 00 00 	movl   $0x4,0x8(%esp)
 804b3db:	00 
 804b3dc:	c7 44 24 04 ff ff 00 	movl   $0xffff,0x4(%esp)
 804b3e3:	00 
 804b3e4:	89 3c 24             	mov    %edi,(%esp)
 804b3e7:	e8 48 e1 ff ff       	call   8049534 <setsockopt@plt>
 804b3ec:	83 f8 ff             	cmp    $0xffffffff,%eax
 804b3ef:	0f 84 2b 02 00 00    	je     804b620 <main+0x1a00>
 804b3f5:	8d 45 a0             	lea    -0x60(%ebp),%eax
 804b3f8:	c7 44 24 08 1c 00 00 	movl   $0x1c,0x8(%esp)
 804b3ff:	00 
 804b400:	89 44 24 04          	mov    %eax,0x4(%esp)
 804b404:	89 3c 24             	mov    %edi,(%esp)
 804b407:	e8 e8 e0 ff ff       	call   80494f4 <bind@plt>
 804b40c:	83 f8 ff             	cmp    $0xffffffff,%eax
 804b40f:	0f 84 0b 02 00 00    	je     804b620 <main+0x1a00>
 804b415:	a1 40 8e 05 08       	mov    0x8058e40,%eax
 804b41a:	c7 44 24 08 10 00 00 	movl   $0x10,0x8(%esp)
 804b421:	00 
 804b422:	c7 44 24 04 89 4c 05 	movl   $0x8054c89,0x4(%esp)
 804b429:	08 
 804b42a:	89 04 24             	mov    %eax,(%esp)
 804b42d:	e8 be 20 00 00       	call   804d4f0 <main+0x38d0>
 804b432:	89 3c 24             	mov    %edi,(%esp)
 804b435:	89 44 24 04          	mov    %eax,0x4(%esp)
 804b439:	e8 76 e5 ff ff       	call   80499b4 <listen@plt>
 804b43e:	83 f8 ff             	cmp    $0xffffffff,%eax
 804b441:	0f 84 d9 01 00 00    	je     804b620 <main+0x1a00>
 804b447:	a1 40 8e 05 08       	mov    0x8058e40,%eax
 804b44c:	89 bd e4 fd ff ff    	mov    %edi,-0x21c(%ebp)
 804b452:	c7 44 24 08 64 00 00 	movl   $0x64,0x8(%esp)
 804b459:	00 
 804b45a:	c7 44 24 04 91 4c 05 	movl   $0x8054c91,0x4(%esp)
 804b461:	08 
 804b462:	89 04 24             	mov    %eax,(%esp)
 804b465:	e8 86 20 00 00       	call   804d4f0 <main+0x38d0>
 804b46a:	8d 55 e4             	lea    -0x1c(%ebp),%edx
 804b46d:	89 54 24 04          	mov    %edx,0x4(%esp)
 804b471:	c7 04 24 01 00 00 00 	movl   $0x1,(%esp)
 804b478:	89 45 e4             	mov    %eax,-0x1c(%ebp)
 804b47b:	e8 64 e1 ff ff       	call   80495e4 <setgroups@plt>
 804b480:	83 f8 ff             	cmp    $0xffffffff,%eax
 804b483:	0f 84 a7 01 00 00    	je     804b630 <main+0x1a10>
 804b489:	8b 45 e4             	mov    -0x1c(%ebp),%eax
 804b48c:	89 04 24             	mov    %eax,(%esp)
 804b48f:	e8 90 e2 ff ff       	call   8049724 <setgid@plt>
 804b494:	83 f8 ff             	cmp    $0xffffffff,%eax
 804b497:	0f 84 93 01 00 00    	je     804b630 <main+0x1a10>
 804b49d:	a1 40 8e 05 08       	mov    0x8058e40,%eax
 804b4a2:	c7 44 24 08 64 00 00 	movl   $0x64,0x8(%esp)
 804b4a9:	00 
 804b4aa:	c7 44 24 04 9c 4c 05 	movl   $0x8054c9c,0x4(%esp)
 804b4b1:	08 
 804b4b2:	89 04 24             	mov    %eax,(%esp)
 804b4b5:	e8 36 20 00 00       	call   804d4f0 <main+0x38d0>
 804b4ba:	89 04 24             	mov    %eax,(%esp)
 804b4bd:	e8 42 e5 ff ff       	call   8049a04 <setuid@plt>
 804b4c2:	83 f8 ff             	cmp    $0xffffffff,%eax
 804b4c5:	0f 84 65 01 00 00    	je     804b630 <main+0x1a10>
 804b4cb:	a1 40 8e 05 08       	mov    0x8058e40,%eax
 804b4d0:	c7 44 24 08 a7 4c 05 	movl   $0x8054ca7,0x8(%esp)
 804b4d7:	08 
 804b4d8:	c7 44 24 04 b3 4c 05 	movl   $0x8054cb3,0x4(%esp)
 804b4df:	08 
 804b4e0:	89 04 24             	mov    %eax,(%esp)
 804b4e3:	e8 d8 1f 00 00       	call   804d4c0 <main+0x38a0>
 804b4e8:	89 04 24             	mov    %eax,(%esp)
 804b4eb:	e8 e4 e1 ff ff       	call   80496d4 <chdir@plt>
 804b4f0:	83 f8 ff             	cmp    $0xffffffff,%eax
 804b4f3:	0f 84 37 01 00 00    	je     804b630 <main+0x1a10>
 804b4f9:	89 f0                	mov    %esi,%eax
 804b4fb:	e8 70 f8 ff ff       	call   804ad70 <main+0x1150>
 804b500:	89 d8                	mov    %ebx,%eax
 804b502:	83 e0 01             	and    $0x1,%eax
 804b505:	8d 95 d4 fe ff ff    	lea    -0x12c(%ebp),%edx
 804b50b:	8d 8d 54 fe ff ff    	lea    -0x1ac(%ebp),%ecx
 804b511:	89 85 c4 fd ff ff    	mov    %eax,-0x23c(%ebp)
 804b517:	89 95 a0 fd ff ff    	mov    %edx,-0x260(%ebp)
 804b51d:	89 8d a4 fd ff ff    	mov    %ecx,-0x25c(%ebp)
 804b523:	89 9d d4 fd ff ff    	mov    %ebx,-0x22c(%ebp)
 804b529:	eb 53                	jmp    804b57e <main+0x195e>
 804b52b:	90                   	nop
 804b52c:	8d 74 26 00          	lea    0x0(%esi,%eiz,1),%esi
 804b530:	8b 9d d4 fd ff ff    	mov    -0x22c(%ebp),%ebx
 804b536:	8d 85 54 ff ff ff    	lea    -0xac(%ebp),%eax
 804b53c:	c7 44 24 08 08 00 00 	movl   $0x8,0x8(%esp)
 804b543:	00 
 804b544:	89 44 24 04          	mov    %eax,0x4(%esp)
 804b548:	8b 43 0c             	mov    0xc(%ebx),%eax
 804b54b:	89 04 24             	mov    %eax,(%esp)
 804b54e:	e8 b1 df ff ff       	call   8049504 <ConnectClientInfo@plt>
 804b553:	83 f8 ff             	cmp    $0xffffffff,%eax
 804b556:	74 18                	je     804b570 <main+0x1950>
 804b558:	8b 9d 68 ff ff ff    	mov    -0x98(%ebp),%ebx
 804b55e:	e8 71 df ff ff       	call   80494d4 <geteuid@plt>
 804b563:	39 c3                	cmp    %eax,%ebx
 804b565:	0f 8e 15 04 00 00    	jle    804b980 <main+0x1d60>
 804b56b:	90                   	nop
 804b56c:	8d 74 26 00          	lea    0x0(%esi,%eiz,1),%esi
 804b570:	8b 9d 4c fe ff ff    	mov    -0x1b4(%ebp),%ebx
 804b576:	85 db                	test   %ebx,%ebx
 804b578:	0f 85 22 03 00 00    	jne    804b8a0 <main+0x1c80>
 804b57e:	8b 8d c4 fd ff ff    	mov    -0x23c(%ebp),%ecx
 804b584:	ba a8 00 00 00       	mov    $0xa8,%edx
 804b589:	8b bd d4 fd ff ff    	mov    -0x22c(%ebp),%edi
 804b58f:	85 c9                	test   %ecx,%ecx
 804b591:	0f 85 c9 03 00 00    	jne    804b960 <main+0x1d40>
 804b597:	f7 c7 02 00 00 00    	test   $0x2,%edi
 804b59d:	0f 85 ad 03 00 00    	jne    804b950 <main+0x1d30>
 804b5a3:	89 d1                	mov    %edx,%ecx
 804b5a5:	31 c0                	xor    %eax,%eax
 804b5a7:	c1 e9 02             	shr    $0x2,%ecx
 804b5aa:	f6 c2 02             	test   $0x2,%dl
 804b5ad:	f3 ab                	rep stos %eax,%es:(%edi)
 804b5af:	74 08                	je     804b5b9 <main+0x1999>
 804b5b1:	66 c7 07 00 00       	movw   $0x0,(%edi)
 804b5b6:	83 c7 02             	add    $0x2,%edi
 804b5b9:	83 e2 01             	and    $0x1,%edx
 804b5bc:	74 03                	je     804b5c1 <main+0x19a1>
 804b5be:	c6 07 00             	movb   $0x0,(%edi)
 804b5c1:	8b 8d d4 fd ff ff    	mov    -0x22c(%ebp),%ecx
 804b5c7:	8b 85 dc fd ff ff    	mov    -0x224(%ebp),%eax
 804b5cd:	c7 44 24 0c 00 00 00 	movl   $0x0,0xc(%esp)
 804b5d4:	00 
 804b5d5:	c7 44 24 08 a8 00 00 	movl   $0xa8,0x8(%esp)
 804b5dc:	00 
 804b5dd:	89 4c 24 04          	mov    %ecx,0x4(%esp)
 804b5e1:	89 04 24             	mov    %eax,(%esp)
 804b5e4:	e8 3b e3 ff ff       	call   8049924 <MsgReceive@plt>
 804b5e9:	83 f8 00             	cmp    $0x0,%eax
 804b5ec:	89 c3                	mov    %eax,%ebx
 804b5ee:	7c 40                	jl     804b630 <main+0x1a10>
 804b5f0:	0f 84 3a ff ff ff    	je     804b530 <main+0x1910>
 804b5f6:	8b 85 d4 fd ff ff    	mov    -0x22c(%ebp),%eax
 804b5fc:	83 38 05             	cmpl   $0x5,(%eax)
 804b5ff:	76 3f                	jbe    804b640 <main+0x1a20>
 804b601:	c7 44 24 04 16 00 00 	movl   $0x16,0x4(%esp)
 804b608:	00 
 804b609:	89 1c 24             	mov    %ebx,(%esp)
 804b60c:	e8 73 e0 ff ff       	call   8049684 <MsgError@plt>
 804b611:	e9 5a ff ff ff       	jmp    804b570 <main+0x1950>
 804b616:	8d 76 00             	lea    0x0(%esi),%esi
 804b619:	8d bc 27 00 00 00 00 	lea    0x0(%edi,%eiz,1),%edi
 804b620:	89 3c 24             	mov    %edi,(%esp)
 804b623:	e8 1c e4 ff ff       	call   8049a44 <close@plt>
 804b628:	90                   	nop
 804b629:	8d b4 26 00 00 00 00 	lea    0x0(%esi,%eiz,1),%esi
 804b630:	81 c4 7c 02 00 00    	add    $0x27c,%esp
 804b636:	5b                   	pop    %ebx
 804b637:	5e                   	pop    %esi
 804b638:	5f                   	pop    %edi
 804b639:	5d                   	pop    %ebp
 804b63a:	c3                   	ret    
 804b63b:	90                   	nop
 804b63c:	8d 74 26 00          	lea    0x0(%esi,%eiz,1),%esi
 804b640:	8b 00                	mov    (%eax),%eax
 804b642:	ff 24 85 c4 4c 05 08 	jmp    *0x8054cc4(,%eax,4)
 804b649:	8d b4 26 00 00 00 00 	lea    0x0(%esi,%eiz,1),%esi
 804b650:	8d 95 d4 fe ff ff    	lea    -0x12c(%ebp),%edx
 804b656:	8b 0a                	mov    (%edx),%ecx
 804b658:	83 c2 04             	add    $0x4,%edx
 804b65b:	8d 81 ff fe fe fe    	lea    -0x1010101(%ecx),%eax
 804b661:	f7 d1                	not    %ecx
 804b663:	21 c8                	and    %ecx,%eax
 804b665:	25 80 80 80 80       	and    $0x80808080,%eax
 804b66a:	74 ea                	je     804b656 <main+0x1a36>
 804b66c:	a9 80 80 00 00       	test   $0x8080,%eax
 804b671:	75 06                	jne    804b679 <main+0x1a59>
 804b673:	c1 e8 10             	shr    $0x10,%eax
 804b676:	83 c2 02             	add    $0x2,%edx
 804b679:	00 c0                	add    %al,%al
 804b67b:	83 da 03             	sbb    $0x3,%edx
 804b67e:	2b 95 a0 fd ff ff    	sub    -0x260(%ebp),%edx
 804b684:	c7 44 24 04 00 00 00 	movl   $0x0,0x4(%esp)
 804b68b:	00 
 804b68c:	89 1c 24             	mov    %ebx,(%esp)
 804b68f:	89 54 24 0c          	mov    %edx,0xc(%esp)
 804b693:	8d 95 d4 fe ff ff    	lea    -0x12c(%ebp),%edx
 804b699:	89 54 24 08          	mov    %edx,0x8(%esp)
 804b69d:	e8 52 e3 ff ff       	call   80499f4 <MsgReply@plt>
 804b6a2:	e9 c9 fe ff ff       	jmp    804b570 <main+0x1950>
 804b6a7:	89 f6                	mov    %esi,%esi
 804b6a9:	8d bc 27 00 00 00 00 	lea    0x0(%edi,%eiz,1),%edi
 804b6b0:	8d 95 54 fe ff ff    	lea    -0x1ac(%ebp),%edx
 804b6b6:	8b 0a                	mov    (%edx),%ecx
 804b6b8:	83 c2 04             	add    $0x4,%edx
 804b6bb:	8d 81 ff fe fe fe    	lea    -0x1010101(%ecx),%eax
 804b6c1:	f7 d1                	not    %ecx
 804b6c3:	21 c8                	and    %ecx,%eax
 804b6c5:	25 80 80 80 80       	and    $0x80808080,%eax
 804b6ca:	74 ea                	je     804b6b6 <main+0x1a96>
 804b6cc:	a9 80 80 00 00       	test   $0x8080,%eax
 804b6d1:	75 06                	jne    804b6d9 <main+0x1ab9>
 804b6d3:	c1 e8 10             	shr    $0x10,%eax
 804b6d6:	83 c2 02             	add    $0x2,%edx
 804b6d9:	00 c0                	add    %al,%al
 804b6db:	83 da 03             	sbb    $0x3,%edx
 804b6de:	2b 95 a4 fd ff ff    	sub    -0x25c(%ebp),%edx
 804b6e4:	8d 85 54 fe ff ff    	lea    -0x1ac(%ebp),%eax
 804b6ea:	89 44 24 08          	mov    %eax,0x8(%esp)
 804b6ee:	89 54 24 0c          	mov    %edx,0xc(%esp)
 804b6f2:	c7 44 24 04 00 00 00 	movl   $0x0,0x4(%esp)
 804b6f9:	00 
 804b6fa:	89 1c 24             	mov    %ebx,(%esp)
 804b6fd:	e8 f2 e2 ff ff       	call   80499f4 <MsgReply@plt>
 804b702:	e9 69 fe ff ff       	jmp    804b570 <main+0x1950>
 804b707:	89 f6                	mov    %esi,%esi
 804b709:	8d bc 27 00 00 00 00 	lea    0x0(%edi,%eiz,1),%edi
 804b710:	8b 85 44 fe ff ff    	mov    -0x1bc(%ebp),%eax
 804b716:	8b 8d d4 fd ff ff    	mov    -0x22c(%ebp),%ecx
 804b71c:	85 c0                	test   %eax,%eax
 804b71e:	8b 51 04             	mov    0x4(%ecx),%edx
 804b721:	75 17                	jne    804b73a <main+0x1b1a>
 804b723:	e9 d9 fe ff ff       	jmp    804b601 <main+0x19e1>
 804b728:	90                   	nop
 804b729:	8d b4 26 00 00 00 00 	lea    0x0(%esi,%eiz,1),%esi
 804b730:	8b 00                	mov    (%eax),%eax
 804b732:	85 c0                	test   %eax,%eax
 804b734:	0f 84 c7 fe ff ff    	je     804b601 <main+0x19e1>
 804b73a:	39 c2                	cmp    %eax,%edx
 804b73c:	75 f2                	jne    804b730 <main+0x1b10>
 804b73e:	89 f0                	mov    %esi,%eax
 804b740:	e8 0b ec ff ff       	call   804a350 <main+0x730>
 804b745:	c7 44 24 04 00 00 00 	movl   $0x0,0x4(%esp)
 804b74c:	00 
 804b74d:	89 1c 24             	mov    %ebx,(%esp)
 804b750:	e8 2f df ff ff       	call   8049684 <MsgError@plt>
 804b755:	e9 16 fe ff ff       	jmp    804b570 <main+0x1950>
 804b75a:	8d b6 00 00 00 00    	lea    0x0(%esi),%esi
 804b760:	8b 85 d4 fd ff ff    	mov    -0x22c(%ebp),%eax
 804b766:	8b 78 04             	mov    0x4(%eax),%edi
 804b769:	8b 85 44 fe ff ff    	mov    -0x1bc(%ebp),%eax
 804b76f:	85 c0                	test   %eax,%eax
 804b771:	75 17                	jne    804b78a <main+0x1b6a>
 804b773:	e9 89 fe ff ff       	jmp    804b601 <main+0x19e1>
 804b778:	90                   	nop
 804b779:	8d b4 26 00 00 00 00 	lea    0x0(%esi,%eiz,1),%esi
 804b780:	8b 00                	mov    (%eax),%eax
 804b782:	85 c0                	test   %eax,%eax
 804b784:	0f 84 77 fe ff ff    	je     804b601 <main+0x19e1>
 804b78a:	39 c7                	cmp    %eax,%edi
 804b78c:	75 f2                	jne    804b780 <main+0x1b60>
 804b78e:	8b 47 4c             	mov    0x4c(%edi),%eax
 804b791:	85 c0                	test   %eax,%eax
 804b793:	0f 85 68 fe ff ff    	jne    804b601 <main+0x19e1>
 804b799:	8b 95 d4 fd ff ff    	mov    -0x22c(%ebp),%edx
 804b79f:	8b 42 08             	mov    0x8(%edx),%eax
 804b7a2:	3d 00 10 00 00       	cmp    $0x1000,%eax
 804b7a7:	0f 87 54 fe ff ff    	ja     804b601 <main+0x19e1>
 804b7ad:	89 04 24             	mov    %eax,(%esp)
 804b7b0:	e8 ff dd ff ff       	call   80495b4 <malloc@plt>
 804b7b5:	85 c0                	test   %eax,%eax
 804b7b7:	89 c2                	mov    %eax,%edx
 804b7b9:	0f 84 13 04 00 00    	je     804bbd2 <main+0x1fb2>
 804b7bf:	8b 8d d4 fd ff ff    	mov    -0x22c(%ebp),%ecx
 804b7c5:	c7 44 24 0c a8 00 00 	movl   $0xa8,0xc(%esp)
 804b7cc:	00 
 804b7cd:	8b 41 08             	mov    0x8(%ecx),%eax
 804b7d0:	89 54 24 04          	mov    %edx,0x4(%esp)
 804b7d4:	89 95 ac fd ff ff    	mov    %edx,-0x254(%ebp)
 804b7da:	89 1c 24             	mov    %ebx,(%esp)
 804b7dd:	89 44 24 08          	mov    %eax,0x8(%esp)
 804b7e1:	e8 ae e1 ff ff       	call   8049994 <MsgRead@plt>
 804b7e6:	8b 8d d4 fd ff ff    	mov    -0x22c(%ebp),%ecx
 804b7ec:	8b 95 ac fd ff ff    	mov    -0x254(%ebp),%edx
 804b7f2:	3b 41 08             	cmp    0x8(%ecx),%eax
 804b7f5:	0f 85 06 fe ff ff    	jne    804b601 <main+0x19e1>
 804b7fb:	89 57 4c             	mov    %edx,0x4c(%edi)
 804b7fe:	8b 95 d4 fd ff ff    	mov    -0x22c(%ebp),%edx
 804b804:	c7 47 50 00 00 00 00 	movl   $0x0,0x50(%edi)
 804b80b:	8b 42 08             	mov    0x8(%edx),%eax
 804b80e:	89 fa                	mov    %edi,%edx
 804b810:	89 5f 58             	mov    %ebx,0x58(%edi)
 804b813:	89 47 54             	mov    %eax,0x54(%edi)
 804b816:	89 f0                	mov    %esi,%eax
 804b818:	e8 33 ec ff ff       	call   804a450 <main+0x830>
 804b81d:	e9 4e fd ff ff       	jmp    804b570 <main+0x1950>
 804b822:	8d b4 26 00 00 00 00 	lea    0x0(%esi,%eiz,1),%esi
 804b829:	8d bc 27 00 00 00 00 	lea    0x0(%edi,%eiz,1),%edi
 804b830:	8b bd 3c fe ff ff    	mov    -0x1c4(%ebp),%edi
 804b836:	85 ff                	test   %edi,%edi
 804b838:	0f 84 67 03 00 00    	je     804bba5 <main+0x1f85>
 804b83e:	89 fa                	mov    %edi,%edx
 804b840:	89 f0                	mov    %esi,%eax
 804b842:	e8 99 ea ff ff       	call   804a2e0 <main+0x6c0>
 804b847:	89 f9                	mov    %edi,%ecx
 804b849:	89 da                	mov    %ebx,%edx
 804b84b:	89 f0                	mov    %esi,%eax
 804b84d:	e8 0e ed ff ff       	call   804a560 <main+0x940>
 804b852:	85 c0                	test   %eax,%eax
 804b854:	0f 85 16 fd ff ff    	jne    804b570 <main+0x1950>
 804b85a:	8b 85 3c fe ff ff    	mov    -0x1c4(%ebp),%eax
 804b860:	85 c0                	test   %eax,%eax
 804b862:	89 07                	mov    %eax,(%edi)
 804b864:	0f 84 5d 03 00 00    	je     804bbc7 <main+0x1fa7>
 804b86a:	89 78 04             	mov    %edi,0x4(%eax)
 804b86d:	8d 8d 3c fe ff ff    	lea    -0x1c4(%ebp),%ecx
 804b873:	89 4f 04             	mov    %ecx,0x4(%edi)
 804b876:	89 bd 3c fe ff ff    	mov    %edi,-0x1c4(%ebp)
 804b87c:	c7 44 24 04 16 00 00 	movl   $0x16,0x4(%esp)
 804b883:	00 
 804b884:	89 1c 24             	mov    %ebx,(%esp)
 804b887:	e8 f8 dd ff ff       	call   8049684 <MsgError@plt>
 804b88c:	e9 df fc ff ff       	jmp    804b570 <main+0x1950>
 804b891:	eb 0d                	jmp    804b8a0 <main+0x1c80>
 804b893:	90                   	nop
 804b894:	90                   	nop
 804b895:	90                   	nop
 804b896:	90                   	nop
 804b897:	90                   	nop
 804b898:	90                   	nop
 804b899:	90                   	nop
 804b89a:	90                   	nop
 804b89b:	90                   	nop
 804b89c:	90                   	nop
 804b89d:	90                   	nop
 804b89e:	90                   	nop
 804b89f:	90                   	nop
 804b8a0:	89 f0                	mov    %esi,%eax
 804b8a2:	89 da                	mov    %ebx,%edx
 804b8a4:	e8 37 ea ff ff       	call   804a2e0 <main+0x6c0>
 804b8a9:	8b 43 24             	mov    0x24(%ebx),%eax
 804b8ac:	85 c0                	test   %eax,%eax
 804b8ae:	7e 08                	jle    804b8b8 <main+0x1c98>
 804b8b0:	89 04 24             	mov    %eax,(%esp)
 804b8b3:	e8 8c e1 ff ff       	call   8049a44 <close@plt>
 804b8b8:	8b 43 30             	mov    0x30(%ebx),%eax
 804b8bb:	8d 8d 10 fe ff ff    	lea    -0x1f0(%ebp),%ecx
 804b8c1:	89 0c 24             	mov    %ecx,(%esp)
 804b8c4:	89 44 24 04          	mov    %eax,0x4(%esp)
 804b8c8:	e8 c3 23 00 00       	call   804dc90 <main+0x4070>
 804b8cd:	8b 43 40             	mov    0x40(%ebx),%eax
 804b8d0:	85 c0                	test   %eax,%eax
 804b8d2:	74 3c                	je     804b910 <main+0x1cf0>
 804b8d4:	8b 53 44             	mov    0x44(%ebx),%edx
 804b8d7:	83 fa ff             	cmp    $0xffffffff,%edx
 804b8da:	74 0b                	je     804b8e7 <main+0x1cc7>
 804b8dc:	89 14 24             	mov    %edx,(%esp)
 804b8df:	e8 60 e1 ff ff       	call   8049a44 <close@plt>
 804b8e4:	8b 43 40             	mov    0x40(%ebx),%eax
 804b8e7:	89 04 24             	mov    %eax,(%esp)
 804b8ea:	e8 75 de ff ff       	call   8049764 <unlink@plt>
 804b8ef:	8b 43 40             	mov    0x40(%ebx),%eax
 804b8f2:	89 04 24             	mov    %eax,(%esp)
 804b8f5:	e8 5a e1 ff ff       	call   8049a54 <free@plt>
 804b8fa:	8b 43 3c             	mov    0x3c(%ebx),%eax
 804b8fd:	89 04 24             	mov    %eax,(%esp)
 804b900:	e8 cf dc ff ff       	call   80495d4 <rmdir@plt>
 804b905:	8b 43 3c             	mov    0x3c(%ebx),%eax
 804b908:	89 04 24             	mov    %eax,(%esp)
 804b90b:	e8 44 e1 ff ff       	call   8049a54 <free@plt>
 804b910:	8b 4b 4c             	mov    0x4c(%ebx),%ecx
 804b913:	85 c9                	test   %ecx,%ecx
 804b915:	74 1e                	je     804b935 <main+0x1d15>
 804b917:	c7 44 24 04 16 00 00 	movl   $0x16,0x4(%esp)
 804b91e:	00 
 804b91f:	8b 43 58             	mov    0x58(%ebx),%eax
 804b922:	89 04 24             	mov    %eax,(%esp)
 804b925:	e8 5a dd ff ff       	call   8049684 <MsgError@plt>
 804b92a:	8b 43 4c             	mov    0x4c(%ebx),%eax
 804b92d:	89 04 24             	mov    %eax,(%esp)
 804b930:	e8 1f e1 ff ff       	call   8049a54 <free@plt>
 804b935:	89 1c 24             	mov    %ebx,(%esp)
 804b938:	e8 17 e1 ff ff       	call   8049a54 <free@plt>
 804b93d:	83 ad ec fd ff ff 01 	subl   $0x1,-0x214(%ebp)
 804b944:	e9 27 fc ff ff       	jmp    804b570 <main+0x1950>
 804b949:	8d b4 26 00 00 00 00 	lea    0x0(%esi,%eiz,1),%esi
 804b950:	66 c7 07 00 00       	movw   $0x0,(%edi)
 804b955:	83 ea 02             	sub    $0x2,%edx
 804b958:	83 c7 02             	add    $0x2,%edi
 804b95b:	e9 43 fc ff ff       	jmp    804b5a3 <main+0x1983>
 804b960:	c6 07 00             	movb   $0x0,(%edi)
 804b963:	8b bd d4 fd ff ff    	mov    -0x22c(%ebp),%edi
 804b969:	b2 a7                	mov    $0xa7,%dl
 804b96b:	83 c7 01             	add    $0x1,%edi
 804b96e:	e9 24 fc ff ff       	jmp    804b597 <main+0x1977>
 804b973:	8d b6 00 00 00 00    	lea    0x0(%esi),%esi
 804b979:	8d bc 27 00 00 00 00 	lea    0x0(%edi,%eiz,1),%edi
 804b980:	8b 95 d4 fd ff ff    	mov    -0x22c(%ebp),%edx
 804b986:	0f b6 42 04          	movzbl 0x4(%edx),%eax
 804b98a:	3c 01                	cmp    $0x1,%al
 804b98c:	0f 84 ea 01 00 00    	je     804bb7c <main+0x1f5c>
 804b992:	0f 8e f9 01 00 00    	jle    804bb91 <main+0x1f71>
 804b998:	3c 02                	cmp    $0x2,%al
 804b99a:	0f 84 c7 01 00 00    	je     804bb67 <main+0x1f47>
 804b9a0:	3c 03                	cmp    $0x3,%al
 804b9a2:	0f 85 c8 fb ff ff    	jne    804b570 <main+0x1950>
 804b9a8:	8d 45 dc             	lea    -0x24(%ebp),%eax
 804b9ab:	89 44 24 04          	mov    %eax,0x4(%esp)
 804b9af:	c7 04 24 02 00 00 00 	movl   $0x2,(%esp)
 804b9b6:	e8 c9 da ff ff       	call   8049484 <clock_gettime@plt>
 804b9bb:	8b 4d e0             	mov    -0x20(%ebp),%ecx
 804b9be:	ba 83 de 1b 43       	mov    $0x431bde83,%edx
 804b9c3:	c7 85 b4 fd ff ff 00 	movl   $0x0,-0x24c(%ebp)
 804b9ca:	00 00 00 
 804b9cd:	89 c8                	mov    %ecx,%eax
 804b9cf:	f7 ea                	imul   %edx
 804b9d1:	69 45 dc e8 03 00 00 	imul   $0x3e8,-0x24(%ebp),%eax
 804b9d8:	c1 f9 1f             	sar    $0x1f,%ecx
 804b9db:	c1 fa 12             	sar    $0x12,%edx
 804b9de:	29 ca                	sub    %ecx,%edx
 804b9e0:	01 c2                	add    %eax,%edx
 804b9e2:	89 95 b0 fd ff ff    	mov    %edx,-0x250(%ebp)
 804b9e8:	8b 95 34 fe ff ff    	mov    -0x1cc(%ebp),%edx
 804b9ee:	85 d2                	test   %edx,%edx
 804b9f0:	75 64                	jne    804ba56 <main+0x1e36>
 804b9f2:	e9 9d 00 00 00       	jmp    804ba94 <main+0x1e74>
 804b9f7:	89 f6                	mov    %esi,%esi
 804b9f9:	8d bc 27 00 00 00 00 	lea    0x0(%edi,%eiz,1),%edi
 804ba00:	8b 8d b0 fd ff ff    	mov    -0x250(%ebp),%ecx
 804ba06:	2b 8d c8 fd ff ff    	sub    -0x238(%ebp),%ecx
 804ba0c:	8b 9d b4 fd ff ff    	mov    -0x24c(%ebp),%ebx
 804ba12:	1b 9d cc fd ff ff    	sbb    -0x234(%ebp),%ebx
 804ba18:	89 8d c8 fd ff ff    	mov    %ecx,-0x238(%ebp)
 804ba1e:	8b 8d 04 fe ff ff    	mov    -0x1fc(%ebp),%ecx
 804ba24:	89 9d cc fd ff ff    	mov    %ebx,-0x234(%ebp)
 804ba2a:	31 db                	xor    %ebx,%ebx
 804ba2c:	83 bd cc fd ff ff 00 	cmpl   $0x0,-0x234(%ebp)
 804ba33:	89 8d b8 fd ff ff    	mov    %ecx,-0x248(%ebp)
 804ba39:	89 9d bc fd ff ff    	mov    %ebx,-0x244(%ebp)
 804ba3f:	77 08                	ja     804ba49 <main+0x1e29>
 804ba41:	39 8d c8 fd ff ff    	cmp    %ecx,-0x238(%ebp)
 804ba47:	76 07                	jbe    804ba50 <main+0x1e30>
 804ba49:	89 f0                	mov    %esi,%eax
 804ba4b:	e8 00 e9 ff ff       	call   804a350 <main+0x730>
 804ba50:	85 ff                	test   %edi,%edi
 804ba52:	74 40                	je     804ba94 <main+0x1e74>
 804ba54:	89 fa                	mov    %edi,%edx
 804ba56:	8b 4a 68             	mov    0x68(%edx),%ecx
 804ba59:	8b 5a 6c             	mov    0x6c(%edx),%ebx
 804ba5c:	8b 3a                	mov    (%edx),%edi
 804ba5e:	89 8d c8 fd ff ff    	mov    %ecx,-0x238(%ebp)
 804ba64:	89 9d cc fd ff ff    	mov    %ebx,-0x234(%ebp)
 804ba6a:	09 cb                	or     %ecx,%ebx
 804ba6c:	75 92                	jne    804ba00 <main+0x1de0>
 804ba6e:	8b 8d b0 fd ff ff    	mov    -0x250(%ebp),%ecx
 804ba74:	8b 9d b4 fd ff ff    	mov    -0x24c(%ebp),%ebx
 804ba7a:	2b 4a 60             	sub    0x60(%edx),%ecx
 804ba7d:	1b 5a 64             	sbb    0x64(%edx),%ebx
 804ba80:	89 8d c8 fd ff ff    	mov    %ecx,-0x238(%ebp)
 804ba86:	8b 8d 00 fe ff ff    	mov    -0x200(%ebp),%ecx
 804ba8c:	89 9d cc fd ff ff    	mov    %ebx,-0x234(%ebp)
 804ba92:	eb 96                	jmp    804ba2a <main+0x1e0a>
 804ba94:	8b 95 3c fe ff ff    	mov    -0x1c4(%ebp),%edx
 804ba9a:	85 d2                	test   %edx,%edx
 804ba9c:	75 04                	jne    804baa2 <main+0x1e82>
 804ba9e:	eb 52                	jmp    804baf2 <main+0x1ed2>
 804baa0:	89 fa                	mov    %edi,%edx
 804baa2:	8b 8d b0 fd ff ff    	mov    -0x250(%ebp),%ecx
 804baa8:	2b 4a 70             	sub    0x70(%edx),%ecx
 804baab:	8b 9d b4 fd ff ff    	mov    -0x24c(%ebp),%ebx
 804bab1:	1b 5a 74             	sbb    0x74(%edx),%ebx
 804bab4:	89 8d c8 fd ff ff    	mov    %ecx,-0x238(%ebp)
 804baba:	8b 8d 08 fe ff ff    	mov    -0x1f8(%ebp),%ecx
 804bac0:	8b 3a                	mov    (%edx),%edi
 804bac2:	89 9d cc fd ff ff    	mov    %ebx,-0x234(%ebp)
 804bac8:	31 db                	xor    %ebx,%ebx
 804baca:	83 bd cc fd ff ff 00 	cmpl   $0x0,-0x234(%ebp)
 804bad1:	89 8d b8 fd ff ff    	mov    %ecx,-0x248(%ebp)
 804bad7:	89 9d bc fd ff ff    	mov    %ebx,-0x244(%ebp)
 804badd:	77 08                	ja     804bae7 <main+0x1ec7>
 804badf:	39 8d c8 fd ff ff    	cmp    %ecx,-0x238(%ebp)
 804bae5:	76 07                	jbe    804baee <main+0x1ece>
 804bae7:	89 f0                	mov    %esi,%eax
 804bae9:	e8 62 e8 ff ff       	call   804a350 <main+0x730>
 804baee:	85 ff                	test   %edi,%edi
 804baf0:	75 ae                	jne    804baa0 <main+0x1e80>
 804baf2:	8b 95 44 fe ff ff    	mov    -0x1bc(%ebp),%edx
 804baf8:	85 d2                	test   %edx,%edx
 804bafa:	75 16                	jne    804bb12 <main+0x1ef2>
 804bafc:	e9 6f fa ff ff       	jmp    804b570 <main+0x1950>
 804bb01:	eb 0d                	jmp    804bb10 <main+0x1ef0>
 804bb03:	90                   	nop
 804bb04:	90                   	nop
 804bb05:	90                   	nop
 804bb06:	90                   	nop
 804bb07:	90                   	nop
 804bb08:	90                   	nop
 804bb09:	90                   	nop
 804bb0a:	90                   	nop
 804bb0b:	90                   	nop
 804bb0c:	90                   	nop
 804bb0d:	90                   	nop
 804bb0e:	90                   	nop
 804bb0f:	90                   	nop
 804bb10:	89 fa                	mov    %edi,%edx
 804bb12:	8b 8d b0 fd ff ff    	mov    -0x250(%ebp),%ecx
 804bb18:	2b 4a 78             	sub    0x78(%edx),%ecx
 804bb1b:	8b 9d b4 fd ff ff    	mov    -0x24c(%ebp),%ebx
 804bb21:	1b 5a 7c             	sbb    0x7c(%edx),%ebx
 804bb24:	89 8d c8 fd ff ff    	mov    %ecx,-0x238(%ebp)
 804bb2a:	8b 8d 0c fe ff ff    	mov    -0x1f4(%ebp),%ecx
 804bb30:	8b 3a                	mov    (%edx),%edi
 804bb32:	89 9d cc fd ff ff    	mov    %ebx,-0x234(%ebp)
 804bb38:	31 db                	xor    %ebx,%ebx
 804bb3a:	83 bd cc fd ff ff 00 	cmpl   $0x0,-0x234(%ebp)
 804bb41:	89 8d b8 fd ff ff    	mov    %ecx,-0x248(%ebp)
 804bb47:	89 9d bc fd ff ff    	mov    %ebx,-0x244(%ebp)
 804bb4d:	77 08                	ja     804bb57 <main+0x1f37>
 804bb4f:	39 8d c8 fd ff ff    	cmp    %ecx,-0x238(%ebp)
 804bb55:	76 07                	jbe    804bb5e <main+0x1f3e>
 804bb57:	89 f0                	mov    %esi,%eax
 804bb59:	e8 f2 e7 ff ff       	call   804a350 <main+0x730>
 804bb5e:	85 ff                	test   %edi,%edi
 804bb60:	75 ae                	jne    804bb10 <main+0x1ef0>
 804bb62:	e9 09 fa ff ff       	jmp    804b570 <main+0x1950>
 804bb67:	8b 9d d4 fd ff ff    	mov    -0x22c(%ebp),%ebx
 804bb6d:	89 f0                	mov    %esi,%eax
 804bb6f:	8b 53 08             	mov    0x8(%ebx),%edx
 804bb72:	e8 d9 e8 ff ff       	call   804a450 <main+0x830>
 804bb77:	e9 f4 f9 ff ff       	jmp    804b570 <main+0x1950>
 804bb7c:	8b 8d d4 fd ff ff    	mov    -0x22c(%ebp),%ecx
 804bb82:	89 f0                	mov    %esi,%eax
 804bb84:	8b 51 08             	mov    0x8(%ecx),%edx
 804bb87:	e8 54 ef ff ff       	call   804aae0 <main+0xec0>
 804bb8c:	e9 df f9 ff ff       	jmp    804b570 <main+0x1950>
 804bb91:	84 c0                	test   %al,%al
 804bb93:	0f 85 d7 f9 ff ff    	jne    804b570 <main+0x1950>
 804bb99:	89 f0                	mov    %esi,%eax
 804bb9b:	e8 d0 f1 ff ff       	call   804ad70 <main+0x1150>
 804bba0:	e9 cb f9 ff ff       	jmp    804b570 <main+0x1950>
 804bba5:	c7 04 24 08 00 00 00 	movl   $0x8,(%esp)
 804bbac:	e8 03 da ff ff       	call   80495b4 <malloc@plt>
 804bbb1:	8b 95 30 fe ff ff    	mov    -0x1d0(%ebp),%edx
 804bbb7:	89 58 04             	mov    %ebx,0x4(%eax)
 804bbba:	89 10                	mov    %edx,(%eax)
 804bbbc:	89 85 30 fe ff ff    	mov    %eax,-0x1d0(%ebp)
 804bbc2:	e9 a9 f9 ff ff       	jmp    804b570 <main+0x1950>
 804bbc7:	89 bd 40 fe ff ff    	mov    %edi,-0x1c0(%ebp)
 804bbcd:	e9 9b fc ff ff       	jmp    804b86d <main+0x1c4d>
 804bbd2:	c7 44 24 04 0c 00 00 	movl   $0xc,0x4(%esp)
 804bbd9:	00 
 804bbda:	89 1c 24             	mov    %ebx,(%esp)
 804bbdd:	e8 a2 da ff ff       	call   8049684 <MsgError@plt>
 804bbe2:	e9 89 f9 ff ff       	jmp    804b570 <main+0x1950>
 804bbe7:	90                   	nop
 804bbe8:	90                   	nop
 804bbe9:	90                   	nop
 804bbea:	90                   	nop
 804bbeb:	90                   	nop
 804bbec:	90                   	nop
 804bbed:	90                   	nop
 804bbee:	90                   	nop
 804bbef:	90                   	nop
 804bbf0:	55                   	push   %ebp
 804bbf1:	89 e5                	mov    %esp,%ebp
 804bbf3:	57                   	push   %edi
 804bbf4:	56                   	push   %esi
 804bbf5:	53                   	push   %ebx
 804bbf6:	89 c3                	mov    %eax,%ebx
 804bbf8:	83 ec 2c             	sub    $0x2c,%esp
 804bbfb:	89 04 24             	mov    %eax,(%esp)
 804bbfe:	e8 c1 dd ff ff       	call   80499c4 <strlen@plt>
 804bc03:	89 c2                	mov    %eax,%edx
 804bc05:	31 c0                	xor    %eax,%eax
 804bc07:	81 fa ff 03 00 00    	cmp    $0x3ff,%edx
 804bc0d:	76 08                	jbe    804bc17 <main+0x1ff7>
 804bc0f:	83 c4 2c             	add    $0x2c,%esp
 804bc12:	5b                   	pop    %ebx
 804bc13:	5e                   	pop    %esi
 804bc14:	5f                   	pop    %edi
 804bc15:	5d                   	pop    %ebp
 804bc16:	c3                   	ret    
 804bc17:	89 5c 24 04          	mov    %ebx,0x4(%esp)
 804bc1b:	bb 01 8a 05 08       	mov    $0x8058a01,%ebx
 804bc20:	c6 05 00 8a 05 08 2f 	movb   $0x2f,0x8058a00
 804bc27:	c7 04 24 01 8a 05 08 	movl   $0x8058a01,(%esp)
 804bc2e:	e8 71 d8 ff ff       	call   80494a4 <strcpy@plt>
 804bc33:	b9 2f 00 00 00       	mov    $0x2f,%ecx
 804bc38:	b8 00 8a 05 08       	mov    $0x8058a00,%eax
 804bc3d:	c6 05 00 8a 05 08 2f 	movb   $0x2f,0x8058a00
 804bc44:	8d b6 00 00 00 00    	lea    0x0(%esi),%esi
 804bc4a:	8d bf 00 00 00 00    	lea    0x0(%edi),%edi
 804bc50:	80 f9 2f             	cmp    $0x2f,%cl
 804bc53:	75 1e                	jne    804bc73 <main+0x2053>
 804bc55:	8d 74 26 00          	lea    0x0(%esi,%eiz,1),%esi
 804bc59:	8d bc 27 00 00 00 00 	lea    0x0(%edi,%eiz,1),%edi
 804bc60:	83 c0 01             	add    $0x1,%eax
 804bc63:	0f b6 08             	movzbl (%eax),%ecx
 804bc66:	80 f9 2f             	cmp    $0x2f,%cl
 804bc69:	74 f5                	je     804bc60 <main+0x2040>
 804bc6b:	84 c9                	test   %cl,%cl
 804bc6d:	0f 84 98 00 00 00    	je     804bd0b <main+0x20eb>
 804bc73:	89 c6                	mov    %eax,%esi
 804bc75:	bf dc 4c 05 08       	mov    $0x8054cdc,%edi
 804bc7a:	b9 02 00 00 00       	mov    $0x2,%ecx
 804bc7f:	f3 a6                	repz cmpsb %es:(%edi),%ds:(%esi)
 804bc81:	75 52                	jne    804bcd5 <main+0x20b5>
 804bc83:	0f b6 48 02          	movzbl 0x2(%eax),%ecx
 804bc87:	8d 70 02             	lea    0x2(%eax),%esi
 804bc8a:	84 c9                	test   %cl,%cl
 804bc8c:	75 42                	jne    804bcd0 <main+0x20b0>
 804bc8e:	8d 43 ff             	lea    -0x1(%ebx),%eax
 804bc91:	2d 00 8a 05 08       	sub    $0x8058a00,%eax
 804bc96:	89 44 24 08          	mov    %eax,0x8(%esp)
 804bc9a:	c7 44 24 04 2f 00 00 	movl   $0x2f,0x4(%esp)
 804bca1:	00 
 804bca2:	c7 04 24 00 8a 05 08 	movl   $0x8058a00,(%esp)
 804bca9:	e8 52 31 00 00       	call   804ee00 <main+0x51e0>
 804bcae:	85 c0                	test   %eax,%eax
 804bcb0:	74 03                	je     804bcb5 <main+0x2095>
 804bcb2:	8d 58 01             	lea    0x1(%eax),%ebx
 804bcb5:	0f b6 0e             	movzbl (%esi),%ecx
 804bcb8:	90                   	nop
 804bcb9:	8d b4 26 00 00 00 00 	lea    0x0(%esi,%eiz,1),%esi
 804bcc0:	84 c9                	test   %cl,%cl
 804bcc2:	74 47                	je     804bd0b <main+0x20eb>
 804bcc4:	89 f0                	mov    %esi,%eax
 804bcc6:	eb 88                	jmp    804bc50 <main+0x2030>
 804bcc8:	90                   	nop
 804bcc9:	8d b4 26 00 00 00 00 	lea    0x0(%esi,%eiz,1),%esi
 804bcd0:	80 f9 2f             	cmp    $0x2f,%cl
 804bcd3:	74 b9                	je     804bc8e <main+0x206e>
 804bcd5:	80 38 2e             	cmpb   $0x2e,(%eax)
 804bcd8:	74 26                	je     804bd00 <main+0x20e0>
 804bcda:	8d b6 00 00 00 00    	lea    0x0(%esi),%esi
 804bce0:	0f b6 08             	movzbl (%eax),%ecx
 804bce3:	84 c9                	test   %cl,%cl
 804bce5:	75 09                	jne    804bcf0 <main+0x20d0>
 804bce7:	80 f9 2f             	cmp    $0x2f,%cl
 804bcea:	74 44                	je     804bd30 <main+0x2110>
 804bcec:	89 c6                	mov    %eax,%esi
 804bcee:	eb d0                	jmp    804bcc0 <main+0x20a0>
 804bcf0:	80 f9 2f             	cmp    $0x2f,%cl
 804bcf3:	74 3b                	je     804bd30 <main+0x2110>
 804bcf5:	88 0b                	mov    %cl,(%ebx)
 804bcf7:	83 c0 01             	add    $0x1,%eax
 804bcfa:	83 c3 01             	add    $0x1,%ebx
 804bcfd:	eb e1                	jmp    804bce0 <main+0x20c0>
 804bcff:	90                   	nop
 804bd00:	0f b6 48 01          	movzbl 0x1(%eax),%ecx
 804bd04:	8d 70 01             	lea    0x1(%eax),%esi
 804bd07:	84 c9                	test   %cl,%cl
 804bd09:	75 35                	jne    804bd40 <main+0x2120>
 804bd0b:	c6 03 00             	movb   $0x0,(%ebx)
 804bd0e:	c7 04 24 00 8a 05 08 	movl   $0x8058a00,(%esp)
 804bd15:	e8 ea da ff ff       	call   8049804 <strdup@plt>
 804bd1a:	83 c4 2c             	add    $0x2c,%esp
 804bd1d:	5b                   	pop    %ebx
 804bd1e:	5e                   	pop    %esi
 804bd1f:	5f                   	pop    %edi
 804bd20:	5d                   	pop    %ebp
 804bd21:	c3                   	ret    
 804bd22:	8d b4 26 00 00 00 00 	lea    0x0(%esi,%eiz,1),%esi
 804bd29:	8d bc 27 00 00 00 00 	lea    0x0(%edi,%eiz,1),%edi
 804bd30:	c6 03 2f             	movb   $0x2f,(%ebx)
 804bd33:	89 c6                	mov    %eax,%esi
 804bd35:	83 c3 01             	add    $0x1,%ebx
 804bd38:	0f b6 08             	movzbl (%eax),%ecx
 804bd3b:	eb 83                	jmp    804bcc0 <main+0x20a0>
 804bd3d:	8d 76 00             	lea    0x0(%esi),%esi
 804bd40:	80 f9 2f             	cmp    $0x2f,%cl
 804bd43:	75 9b                	jne    804bce0 <main+0x20c0>
 804bd45:	e9 76 ff ff ff       	jmp    804bcc0 <main+0x20a0>
 804bd4a:	8d b6 00 00 00 00    	lea    0x0(%esi),%esi
 804bd50:	55                   	push   %ebp
 804bd51:	31 c0                	xor    %eax,%eax
 804bd53:	89 e5                	mov    %esp,%ebp
 804bd55:	53                   	push   %ebx
 804bd56:	83 ec 14             	sub    $0x14,%esp
 804bd59:	8b 55 14             	mov    0x14(%ebp),%edx
 804bd5c:	8b 5d 18             	mov    0x18(%ebp),%ebx
 804bd5f:	85 d2                	test   %edx,%edx
 804bd61:	74 0d                	je     804bd70 <main+0x2150>
 804bd63:	83 c4 14             	add    $0x14,%esp
 804bd66:	5b                   	pop    %ebx
 804bd67:	5d                   	pop    %ebp
 804bd68:	c3                   	ret    
 804bd69:	8d b4 26 00 00 00 00 	lea    0x0(%esi,%eiz,1),%esi
 804bd70:	8b 45 08             	mov    0x8(%ebp),%eax
 804bd73:	83 c0 38             	add    $0x38,%eax
 804bd76:	89 04 24             	mov    %eax,(%esp)
 804bd79:	e8 86 da ff ff       	call   8049804 <strdup@plt>
 804bd7e:	85 c0                	test   %eax,%eax
 804bd80:	89 43 04             	mov    %eax,0x4(%ebx)
 804bd83:	74 1b                	je     804bda0 <main+0x2180>
 804bd85:	c7 03 02 00 00 00    	movl   $0x2,(%ebx)
 804bd8b:	b8 01 00 00 00       	mov    $0x1,%eax
 804bd90:	83 c4 14             	add    $0x14,%esp
 804bd93:	5b                   	pop    %ebx
 804bd94:	5d                   	pop    %ebp
 804bd95:	c3                   	ret    
 804bd96:	8d 76 00             	lea    0x0(%esi),%esi
 804bd99:	8d bc 27 00 00 00 00 	lea    0x0(%edi,%eiz,1),%edi
 804bda0:	c7 03 00 00 00 00    	movl   $0x0,(%ebx)
 804bda6:	b8 01 00 00 00       	mov    $0x1,%eax
 804bdab:	c7 43 04 00 00 00 00 	movl   $0x0,0x4(%ebx)
 804bdb2:	eb af                	jmp    804bd63 <main+0x2143>
 804bdb4:	8d b6 00 00 00 00    	lea    0x0(%esi),%esi
 804bdba:	8d bf 00 00 00 00    	lea    0x0(%edi),%edi
 804bdc0:	55                   	push   %ebp
 804bdc1:	89 e5                	mov    %esp,%ebp
 804bdc3:	83 ec 18             	sub    $0x18,%esp
 804bdc6:	83 7d 14 01          	cmpl   $0x1,0x14(%ebp)
 804bdca:	89 5d f8             	mov    %ebx,-0x8(%ebp)
 804bdcd:	8b 5d 08             	mov    0x8(%ebp),%ebx
 804bdd0:	89 75 fc             	mov    %esi,-0x4(%ebp)
 804bdd3:	8b 75 10             	mov    0x10(%ebp),%esi
 804bdd6:	74 18                	je     804bdf0 <main+0x21d0>
 804bdd8:	31 c0                	xor    %eax,%eax
 804bdda:	8b 5d f8             	mov    -0x8(%ebp),%ebx
 804bddd:	8b 75 fc             	mov    -0x4(%ebp),%esi
 804bde0:	89 ec                	mov    %ebp,%esp
 804bde2:	5d                   	pop    %ebp
 804bde3:	c3                   	ret    
 804bde4:	8d b6 00 00 00 00    	lea    0x0(%esi),%esi
 804bdea:	8d bf 00 00 00 00    	lea    0x0(%edi),%edi
 804bdf0:	83 3e 02             	cmpl   $0x2,(%esi)
 804bdf3:	75 e3                	jne    804bdd8 <main+0x21b8>
 804bdf5:	8b 83 04 01 00 00    	mov    0x104(%ebx),%eax
 804bdfb:	89 04 24             	mov    %eax,(%esp)
 804bdfe:	e8 51 dc ff ff       	call   8049a54 <free@plt>
 804be03:	8b 46 04             	mov    0x4(%esi),%eax
 804be06:	89 04 24             	mov    %eax,(%esp)
 804be09:	e8 f6 d9 ff ff       	call   8049804 <strdup@plt>
 804be0e:	85 c0                	test   %eax,%eax
 804be10:	89 83 04 01 00 00    	mov    %eax,0x104(%ebx)
 804be16:	0f 95 c0             	setne  %al
 804be19:	0f b6 c0             	movzbl %al,%eax
 804be1c:	eb bc                	jmp    804bdda <main+0x21ba>
 804be1e:	66 90                	xchg   %ax,%ax
 804be20:	55                   	push   %ebp
 804be21:	89 e5                	mov    %esp,%ebp
 804be23:	53                   	push   %ebx
 804be24:	83 ec 14             	sub    $0x14,%esp
 804be27:	8b 5d 0c             	mov    0xc(%ebp),%ebx
 804be2a:	8b 45 08             	mov    0x8(%ebp),%eax
 804be2d:	89 04 24             	mov    %eax,(%esp)
 804be30:	e8 1f dc ff ff       	call   8049a54 <free@plt>
 804be35:	89 5d 08             	mov    %ebx,0x8(%ebp)
 804be38:	83 c4 14             	add    $0x14,%esp
 804be3b:	5b                   	pop    %ebx
 804be3c:	5d                   	pop    %ebp
 804be3d:	e9 12 dc ff ff       	jmp    8049a54 <free@plt>
 804be42:	8d b4 26 00 00 00 00 	lea    0x0(%esi,%eiz,1),%esi
 804be49:	8d bc 27 00 00 00 00 	lea    0x0(%edi,%eiz,1),%edi
 804be50:	55                   	push   %ebp
 804be51:	89 e5                	mov    %esp,%ebp
 804be53:	53                   	push   %ebx
 804be54:	81 ec e4 00 00 00    	sub    $0xe4,%esp
 804be5a:	8b 98 b8 00 00 00    	mov    0xb8(%eax),%ebx
 804be60:	89 55 e8             	mov    %edx,-0x18(%ebp)
 804be63:	8d 55 f0             	lea    -0x10(%ebp),%edx
 804be66:	89 54 24 0c          	mov    %edx,0xc(%esp)
 804be6a:	8d 55 e0             	lea    -0x20(%ebp),%edx
 804be6d:	c7 85 38 ff ff ff 02 	movl   $0x2,-0xc8(%ebp)
 804be74:	00 00 00 
 804be77:	89 8d 40 ff ff ff    	mov    %ecx,-0xc0(%ebp)
 804be7d:	c7 45 e4 a8 00 00 00 	movl   $0xa8,-0x1c(%ebp)
 804be84:	89 4d ec             	mov    %ecx,-0x14(%ebp)
 804be87:	c7 45 f4 00 00 00 00 	movl   $0x0,-0xc(%ebp)
 804be8e:	c7 44 24 10 01 00 00 	movl   $0x1,0x10(%esp)
 804be95:	00 
 804be96:	c7 44 24 08 02 00 00 	movl   $0x2,0x8(%esp)
 804be9d:	00 
 804be9e:	89 54 24 04          	mov    %edx,0x4(%esp)
 804bea2:	8b 00                	mov    (%eax),%eax
 804bea4:	89 9d 3c ff ff ff    	mov    %ebx,-0xc4(%ebp)
 804beaa:	8d 9d 38 ff ff ff    	lea    -0xc8(%ebp),%ebx
 804beb0:	89 5d e0             	mov    %ebx,-0x20(%ebp)
 804beb3:	c7 45 f0 00 00 00 00 	movl   $0x0,-0x10(%ebp)
 804beba:	89 04 24             	mov    %eax,(%esp)
 804bebd:	e8 e2 d9 ff ff       	call   80498a4 <MsgSendv@plt>
 804bec2:	81 c4 e4 00 00 00    	add    $0xe4,%esp
 804bec8:	5b                   	pop    %ebx
 804bec9:	5d                   	pop    %ebp
 804beca:	c3                   	ret    
 804becb:	90                   	nop
 804becc:	8d 74 26 00          	lea    0x0(%esi,%eiz,1),%esi
 804bed0:	55                   	push   %ebp
 804bed1:	89 e5                	mov    %esp,%ebp
 804bed3:	83 ec 38             	sub    $0x38,%esp
 804bed6:	8b 45 08             	mov    0x8(%ebp),%eax
 804bed9:	89 5d f4             	mov    %ebx,-0xc(%ebp)
 804bedc:	89 75 f8             	mov    %esi,-0x8(%ebp)
 804bedf:	8b 75 10             	mov    0x10(%ebp),%esi
 804bee2:	89 7d fc             	mov    %edi,-0x4(%ebp)
 804bee5:	8b 7d 0c             	mov    0xc(%ebp),%edi
 804bee8:	89 45 e4             	mov    %eax,-0x1c(%ebp)
 804beeb:	89 04 24             	mov    %eax,(%esp)
 804beee:	e8 d1 da ff ff       	call   80499c4 <strlen@plt>
 804bef3:	83 3f 02             	cmpl   $0x2,(%edi)
 804bef6:	8d 58 0e             	lea    0xe(%eax),%ebx
 804bef9:	74 65                	je     804bf60 <main+0x2340>
 804befb:	83 c0 22             	add    $0x22,%eax
 804befe:	89 04 24             	mov    %eax,(%esp)
 804bf01:	e8 ae d6 ff ff       	call   80495b4 <malloc@plt>
 804bf06:	85 c0                	test   %eax,%eax
 804bf08:	89 c3                	mov    %eax,%ebx
 804bf0a:	74 6f                	je     804bf7b <main+0x235b>
 804bf0c:	83 3f 02             	cmpl   $0x2,(%edi)
 804bf0f:	74 7f                	je     804bf90 <main+0x2370>
 804bf11:	8b 47 04             	mov    0x4(%edi),%eax
 804bf14:	89 44 24 0c          	mov    %eax,0xc(%esp)
 804bf18:	8b 45 e4             	mov    -0x1c(%ebp),%eax
 804bf1b:	c7 44 24 04 f1 4c 05 	movl   $0x8054cf1,0x4(%esp)
 804bf22:	08 
 804bf23:	89 1c 24             	mov    %ebx,(%esp)
 804bf26:	89 44 24 08          	mov    %eax,0x8(%esp)
 804bf2a:	e8 d5 d9 ff ff       	call   8049904 <sprintf@plt>
 804bf2f:	89 1c 24             	mov    %ebx,(%esp)
 804bf32:	e8 8d da ff ff       	call   80499c4 <strlen@plt>
 804bf37:	89 da                	mov    %ebx,%edx
 804bf39:	89 c1                	mov    %eax,%ecx
 804bf3b:	89 f0                	mov    %esi,%eax
 804bf3d:	e8 0e ff ff ff       	call   804be50 <main+0x2230>
 804bf42:	8b 75 f8             	mov    -0x8(%ebp),%esi
 804bf45:	89 5d 08             	mov    %ebx,0x8(%ebp)
 804bf48:	8b 7d fc             	mov    -0x4(%ebp),%edi
 804bf4b:	8b 5d f4             	mov    -0xc(%ebp),%ebx
 804bf4e:	89 ec                	mov    %ebp,%esp
 804bf50:	5d                   	pop    %ebp
 804bf51:	e9 fe da ff ff       	jmp    8049a54 <free@plt>
 804bf56:	8d 76 00             	lea    0x0(%esi),%esi
 804bf59:	8d bc 27 00 00 00 00 	lea    0x0(%edi,%eiz,1),%edi
 804bf60:	8b 47 04             	mov    0x4(%edi),%eax
 804bf63:	89 04 24             	mov    %eax,(%esp)
 804bf66:	e8 59 da ff ff       	call   80499c4 <strlen@plt>
 804bf6b:	01 d8                	add    %ebx,%eax
 804bf6d:	89 04 24             	mov    %eax,(%esp)
 804bf70:	e8 3f d6 ff ff       	call   80495b4 <malloc@plt>
 804bf75:	85 c0                	test   %eax,%eax
 804bf77:	89 c3                	mov    %eax,%ebx
 804bf79:	75 91                	jne    804bf0c <main+0x22ec>
 804bf7b:	8b 5d f4             	mov    -0xc(%ebp),%ebx
 804bf7e:	8b 75 f8             	mov    -0x8(%ebp),%esi
 804bf81:	8b 7d fc             	mov    -0x4(%ebp),%edi
 804bf84:	89 ec                	mov    %ebp,%esp
 804bf86:	5d                   	pop    %ebp
 804bf87:	c3                   	ret    
 804bf88:	90                   	nop
 804bf89:	8d b4 26 00 00 00 00 	lea    0x0(%esi,%eiz,1),%esi
 804bf90:	8b 47 04             	mov    0x4(%edi),%eax
 804bf93:	89 44 24 0c          	mov    %eax,0xc(%esp)
 804bf97:	8b 45 e4             	mov    -0x1c(%ebp),%eax
 804bf9a:	c7 44 24 04 df 4c 05 	movl   $0x8054cdf,0x4(%esp)
 804bfa1:	08 
 804bfa2:	89 1c 24             	mov    %ebx,(%esp)
 804bfa5:	89 44 24 08          	mov    %eax,0x8(%esp)
 804bfa9:	e8 56 d9 ff ff       	call   8049904 <sprintf@plt>
 804bfae:	e9 7c ff ff ff       	jmp    804bf2f <main+0x230f>
 804bfb3:	8d b6 00 00 00 00    	lea    0x0(%esi),%esi
 804bfb9:	8d bc 27 00 00 00 00 	lea    0x0(%edi,%eiz,1),%edi
 804bfc0:	55                   	push   %ebp
 804bfc1:	31 c0                	xor    %eax,%eax
 804bfc3:	89 e5                	mov    %esp,%ebp
 804bfc5:	83 ec 18             	sub    $0x18,%esp
 804bfc8:	8b 4d 14             	mov    0x14(%ebp),%ecx
 804bfcb:	85 c9                	test   %ecx,%ecx
 804bfcd:	74 11                	je     804bfe0 <main+0x23c0>
 804bfcf:	c9                   	leave  
 804bfd0:	c3                   	ret    
 804bfd1:	eb 0d                	jmp    804bfe0 <main+0x23c0>
 804bfd3:	90                   	nop
 804bfd4:	90                   	nop
 804bfd5:	90                   	nop
 804bfd6:	90                   	nop
 804bfd7:	90                   	nop
 804bfd8:	90                   	nop
 804bfd9:	90                   	nop
 804bfda:	90                   	nop
 804bfdb:	90                   	nop
 804bfdc:	90                   	nop
 804bfdd:	90                   	nop
 804bfde:	90                   	nop
 804bfdf:	90                   	nop
 804bfe0:	8b 45 08             	mov    0x8(%ebp),%eax
 804bfe3:	c7 44 24 04 d0 be 04 	movl   $0x804bed0,0x4(%esp)
 804bfea:	08 
 804bfeb:	89 44 24 08          	mov    %eax,0x8(%esp)
 804bfef:	8b 45 0c             	mov    0xc(%ebp),%eax
 804bff2:	8b 40 08             	mov    0x8(%eax),%eax
 804bff5:	89 04 24             	mov    %eax,(%esp)
 804bff8:	e8 b3 17 00 00       	call   804d7b0 <main+0x3b90>
 804bffd:	b8 01 00 00 00       	mov    $0x1,%eax
 804c002:	c9                   	leave  
 804c003:	c3                   	ret    
 804c004:	8d b6 00 00 00 00    	lea    0x0(%esi),%esi
 804c00a:	8d bf 00 00 00 00    	lea    0x0(%edi),%edi
 804c010:	55                   	push   %ebp
 804c011:	89 e5                	mov    %esp,%ebp
 804c013:	83 ec 48             	sub    $0x48,%esp
 804c016:	83 7d 14 01          	cmpl   $0x1,0x14(%ebp)
 804c01a:	89 5d f4             	mov    %ebx,-0xc(%ebp)
 804c01d:	8b 45 10             	mov    0x10(%ebp),%eax
 804c020:	89 75 f8             	mov    %esi,-0x8(%ebp)
 804c023:	89 7d fc             	mov    %edi,-0x4(%ebp)
 804c026:	74 18                	je     804c040 <main+0x2420>
 804c028:	31 c0                	xor    %eax,%eax
 804c02a:	8b 5d f4             	mov    -0xc(%ebp),%ebx
 804c02d:	8b 75 f8             	mov    -0x8(%ebp),%esi
 804c030:	8b 7d fc             	mov    -0x4(%ebp),%edi
 804c033:	89 ec                	mov    %ebp,%esp
 804c035:	5d                   	pop    %ebp
 804c036:	c3                   	ret    
 804c037:	89 f6                	mov    %esi,%esi
 804c039:	8d bc 27 00 00 00 00 	lea    0x0(%edi,%eiz,1),%edi
 804c040:	83 38 02             	cmpl   $0x2,(%eax)
 804c043:	75 e3                	jne    804c028 <main+0x2408>
 804c045:	8b 40 04             	mov    0x4(%eax),%eax
 804c048:	89 04 24             	mov    %eax,(%esp)
 804c04b:	e8 b4 d7 ff ff       	call   8049804 <strdup@plt>
 804c050:	85 c0                	test   %eax,%eax
 804c052:	89 45 e4             	mov    %eax,-0x1c(%ebp)
 804c055:	74 d1                	je     804c028 <main+0x2408>
 804c057:	89 c3                	mov    %eax,%ebx
 804c059:	31 c9                	xor    %ecx,%ecx
 804c05b:	83 c3 01             	add    $0x1,%ebx
 804c05e:	89 c7                	mov    %eax,%edi
 804c060:	89 c2                	mov    %eax,%edx
 804c062:	89 4d d4             	mov    %ecx,-0x2c(%ebp)
 804c065:	eb 1c                	jmp    804c083 <main+0x2463>
 804c067:	89 f6                	mov    %esi,%esi
 804c069:	8d bc 27 00 00 00 00 	lea    0x0(%edi,%eiz,1),%edi
 804c070:	3c 26                	cmp    $0x26,%al
 804c072:	74 3c                	je     804c0b0 <main+0x2490>
 804c074:	3c 25                	cmp    $0x25,%al
 804c076:	8d 72 01             	lea    0x1(%edx),%esi
 804c079:	74 75                	je     804c0f0 <main+0x24d0>
 804c07b:	88 43 ff             	mov    %al,-0x1(%ebx)
 804c07e:	83 c3 01             	add    $0x1,%ebx
 804c081:	89 f2                	mov    %esi,%edx
 804c083:	0f b6 02             	movzbl (%edx),%eax
 804c086:	8d 73 ff             	lea    -0x1(%ebx),%esi
 804c089:	84 c0                	test   %al,%al
 804c08b:	0f 84 bf 00 00 00    	je     804c150 <main+0x2530>
 804c091:	3c 3d                	cmp    $0x3d,%al
 804c093:	75 db                	jne    804c070 <main+0x2450>
 804c095:	c6 43 ff 00          	movb   $0x0,-0x1(%ebx)
 804c099:	8d 72 01             	lea    0x1(%edx),%esi
 804c09c:	89 5d d4             	mov    %ebx,-0x2c(%ebp)
 804c09f:	eb dd                	jmp    804c07e <main+0x245e>
 804c0a1:	eb 0d                	jmp    804c0b0 <main+0x2490>
 804c0a3:	90                   	nop
 804c0a4:	90                   	nop
 804c0a5:	90                   	nop
 804c0a6:	90                   	nop
 804c0a7:	90                   	nop
 804c0a8:	90                   	nop
 804c0a9:	90                   	nop
 804c0aa:	90                   	nop
 804c0ab:	90                   	nop
 804c0ac:	90                   	nop
 804c0ad:	90                   	nop
 804c0ae:	90                   	nop
 804c0af:	90                   	nop
 804c0b0:	c6 43 ff 00          	movb   $0x0,-0x1(%ebx)
 804c0b4:	8b 45 d4             	mov    -0x2c(%ebp),%eax
 804c0b7:	8d 72 01             	lea    0x1(%edx),%esi
 804c0ba:	85 c0                	test   %eax,%eax
 804c0bc:	74 1a                	je     804c0d8 <main+0x24b8>
 804c0be:	85 ff                	test   %edi,%edi
 804c0c0:	74 16                	je     804c0d8 <main+0x24b8>
 804c0c2:	8b 45 d4             	mov    -0x2c(%ebp),%eax
 804c0c5:	8b 4d 0c             	mov    0xc(%ebp),%ecx
 804c0c8:	89 7c 24 04          	mov    %edi,0x4(%esp)
 804c0cc:	89 44 24 08          	mov    %eax,0x8(%esp)
 804c0d0:	89 0c 24             	mov    %ecx,(%esp)
 804c0d3:	e8 98 58 00 00       	call   8051970 <main+0x7d50>
 804c0d8:	89 df                	mov    %ebx,%edi
 804c0da:	c7 45 d4 00 00 00 00 	movl   $0x0,-0x2c(%ebp)
 804c0e1:	eb 9b                	jmp    804c07e <main+0x245e>
 804c0e3:	8d b6 00 00 00 00    	lea    0x0(%esi),%esi
 804c0e9:	8d bc 27 00 00 00 00 	lea    0x0(%edi,%eiz,1),%edi
 804c0f0:	0f b6 4a 01          	movzbl 0x1(%edx),%ecx
 804c0f4:	8d 72 01             	lea    0x1(%edx),%esi
 804c0f7:	84 c9                	test   %cl,%cl
 804c0f9:	88 4d e3             	mov    %cl,-0x1d(%ebp)
 804c0fc:	0f 84 79 ff ff ff    	je     804c07b <main+0x245b>
 804c102:	0f b6 4a 02          	movzbl 0x2(%edx),%ecx
 804c106:	84 c9                	test   %cl,%cl
 804c108:	88 4d e2             	mov    %cl,-0x1e(%ebp)
 804c10b:	0f 84 6a ff ff ff    	je     804c07b <main+0x245b>
 804c111:	0f b6 45 e3          	movzbl -0x1d(%ebp),%eax
 804c115:	83 e8 30             	sub    $0x30,%eax
 804c118:	3c 09                	cmp    $0x9,%al
 804c11a:	0f 87 90 00 00 00    	ja     804c1b0 <main+0x2590>
 804c120:	0f b6 45 e3          	movzbl -0x1d(%ebp),%eax
 804c124:	c1 e0 04             	shl    $0x4,%eax
 804c127:	88 45 e3             	mov    %al,-0x1d(%ebp)
 804c12a:	0f b6 45 e2          	movzbl -0x1e(%ebp),%eax
 804c12e:	83 e8 30             	sub    $0x30,%eax
 804c131:	3c 09                	cmp    $0x9,%al
 804c133:	77 5b                	ja     804c190 <main+0x2570>
 804c135:	0f b6 45 e2          	movzbl -0x1e(%ebp),%eax
 804c139:	83 e8 30             	sub    $0x30,%eax
 804c13c:	0a 45 e3             	or     -0x1d(%ebp),%al
 804c13f:	8d 72 03             	lea    0x3(%edx),%esi
 804c142:	88 43 ff             	mov    %al,-0x1(%ebx)
 804c145:	e9 34 ff ff ff       	jmp    804c07e <main+0x245e>
 804c14a:	8d b6 00 00 00 00    	lea    0x0(%esi),%esi
 804c150:	8b 4d d4             	mov    -0x2c(%ebp),%ecx
 804c153:	85 c9                	test   %ecx,%ecx
 804c155:	74 1a                	je     804c171 <main+0x2551>
 804c157:	85 ff                	test   %edi,%edi
 804c159:	74 16                	je     804c171 <main+0x2551>
 804c15b:	c6 06 00             	movb   $0x0,(%esi)
 804c15e:	8b 75 0c             	mov    0xc(%ebp),%esi
 804c161:	89 4c 24 08          	mov    %ecx,0x8(%esp)
 804c165:	89 7c 24 04          	mov    %edi,0x4(%esp)
 804c169:	89 34 24             	mov    %esi,(%esp)
 804c16c:	e8 ff 57 00 00       	call   8051970 <main+0x7d50>
 804c171:	8b 45 e4             	mov    -0x1c(%ebp),%eax
 804c174:	89 04 24             	mov    %eax,(%esp)
 804c177:	e8 d8 d8 ff ff       	call   8049a54 <free@plt>
 804c17c:	b8 01 00 00 00       	mov    $0x1,%eax
 804c181:	e9 a4 fe ff ff       	jmp    804c02a <main+0x240a>
 804c186:	8d 76 00             	lea    0x0(%esi),%esi
 804c189:	8d bc 27 00 00 00 00 	lea    0x0(%edi,%eiz,1),%edi
 804c190:	0f be 75 e2          	movsbl -0x1e(%ebp),%esi
 804c194:	a1 00 79 05 08       	mov    0x8057900,%eax
 804c199:	0f b6 04 70          	movzbl (%eax,%esi,2),%eax
 804c19d:	8d 70 bf             	lea    -0x41(%eax),%esi
 804c1a0:	89 f1                	mov    %esi,%ecx
 804c1a2:	89 f0                	mov    %esi,%eax
 804c1a4:	80 f9 06             	cmp    $0x6,%cl
 804c1a7:	19 f6                	sbb    %esi,%esi
 804c1a9:	21 f0                	and    %esi,%eax
 804c1ab:	eb 8f                	jmp    804c13c <main+0x251c>
 804c1ad:	8d 76 00             	lea    0x0(%esi),%esi
 804c1b0:	0f be 75 e3          	movsbl -0x1d(%ebp),%esi
 804c1b4:	a1 00 79 05 08       	mov    0x8057900,%eax
 804c1b9:	c6 45 e3 00          	movb   $0x0,-0x1d(%ebp)
 804c1bd:	0f b6 04 70          	movzbl (%eax,%esi,2),%eax
 804c1c1:	8d 70 bf             	lea    -0x41(%eax),%esi
 804c1c4:	89 f1                	mov    %esi,%ecx
 804c1c6:	80 f9 05             	cmp    $0x5,%cl
 804c1c9:	0f 87 5b ff ff ff    	ja     804c12a <main+0x250a>
 804c1cf:	c1 e0 04             	shl    $0x4,%eax
 804c1d2:	8d 70 f0             	lea    -0x10(%eax),%esi
 804c1d5:	89 f1                	mov    %esi,%ecx
 804c1d7:	88 4d e3             	mov    %cl,-0x1d(%ebp)
 804c1da:	e9 4b ff ff ff       	jmp    804c12a <main+0x250a>
 804c1df:	90                   	nop
 804c1e0:	55                   	push   %ebp
 804c1e1:	31 c0                	xor    %eax,%eax
 804c1e3:	89 e5                	mov    %esp,%ebp
 804c1e5:	83 ec 18             	sub    $0x18,%esp
 804c1e8:	83 7d 14 01          	cmpl   $0x1,0x14(%ebp)
 804c1ec:	8b 4d 08             	mov    0x8(%ebp),%ecx
 804c1ef:	8b 55 10             	mov    0x10(%ebp),%edx
 804c1f2:	74 0c                	je     804c200 <main+0x25e0>
 804c1f4:	c9                   	leave  
 804c1f5:	c3                   	ret    
 804c1f6:	8d 76 00             	lea    0x0(%esi),%esi
 804c1f9:	8d bc 27 00 00 00 00 	lea    0x0(%edi,%eiz,1),%edi
 804c200:	83 3a 02             	cmpl   $0x2,(%edx)
 804c203:	74 2b                	je     804c230 <main+0x2610>
 804c205:	c7 44 24 0c 01 00 00 	movl   $0x1,0xc(%esp)
 804c20c:	00 
 804c20d:	89 54 24 08          	mov    %edx,0x8(%esp)
 804c211:	c7 44 24 04 08 4d 05 	movl   $0x8054d08,0x4(%esp)
 804c218:	08 
 804c219:	89 0c 24             	mov    %ecx,(%esp)
 804c21c:	e8 4f 6e 00 00       	call   8053070 <main+0x9450>
 804c221:	c9                   	leave  
 804c222:	f7 d0                	not    %eax
 804c224:	c1 e8 1f             	shr    $0x1f,%eax
 804c227:	c3                   	ret    
 804c228:	90                   	nop
 804c229:	8d b4 26 00 00 00 00 	lea    0x0(%esi,%eiz,1),%esi
 804c230:	c7 44 24 0c 01 00 00 	movl   $0x1,0xc(%esp)
 804c237:	00 
 804c238:	89 54 24 08          	mov    %edx,0x8(%esp)
 804c23c:	c7 44 24 04 04 4d 05 	movl   $0x8054d04,0x4(%esp)
 804c243:	08 
 804c244:	89 0c 24             	mov    %ecx,(%esp)
 804c247:	e8 24 6e 00 00       	call   8053070 <main+0x9450>
 804c24c:	c9                   	leave  
 804c24d:	f7 d0                	not    %eax
 804c24f:	c1 e8 1f             	shr    $0x1f,%eax
 804c252:	c3                   	ret    
 804c253:	8d b6 00 00 00 00    	lea    0x0(%esi),%esi
 804c259:	8d bc 27 00 00 00 00 	lea    0x0(%edi,%eiz,1),%edi
 804c260:	55                   	push   %ebp
 804c261:	89 e5                	mov    %esp,%ebp
 804c263:	83 ec 18             	sub    $0x18,%esp
 804c266:	8b 45 14             	mov    0x14(%ebp),%eax
 804c269:	8b 55 10             	mov    0x10(%ebp),%edx
 804c26c:	85 c0                	test   %eax,%eax
 804c26e:	74 05                	je     804c275 <main+0x2655>
 804c270:	83 3a 02             	cmpl   $0x2,(%edx)
 804c273:	74 0b                	je     804c280 <main+0x2660>
 804c275:	31 c0                	xor    %eax,%eax
 804c277:	c9                   	leave  
 804c278:	c3                   	ret    
 804c279:	8d b4 26 00 00 00 00 	lea    0x0(%esi,%eiz,1),%esi
 804c280:	83 e8 01             	sub    $0x1,%eax
 804c283:	89 44 24 0c          	mov    %eax,0xc(%esp)
 804c287:	8d 42 08             	lea    0x8(%edx),%eax
 804c28a:	89 44 24 08          	mov    %eax,0x8(%esp)
 804c28e:	8b 42 04             	mov    0x4(%edx),%eax
 804c291:	89 44 24 04          	mov    %eax,0x4(%esp)
 804c295:	8b 45 08             	mov    0x8(%ebp),%eax
 804c298:	89 04 24             	mov    %eax,(%esp)
 804c29b:	e8 d0 6d 00 00       	call   8053070 <main+0x9450>
 804c2a0:	c9                   	leave  
 804c2a1:	f7 d0                	not    %eax
 804c2a3:	c1 e8 1f             	shr    $0x1f,%eax
 804c2a6:	c3                   	ret    
 804c2a7:	89 f6                	mov    %esi,%esi
 804c2a9:	8d bc 27 00 00 00 00 	lea    0x0(%edi,%eiz,1),%edi
 804c2b0:	55                   	push   %ebp
 804c2b1:	89 e5                	mov    %esp,%ebp
 804c2b3:	57                   	push   %edi
 804c2b4:	89 c7                	mov    %eax,%edi
 804c2b6:	56                   	push   %esi
 804c2b7:	53                   	push   %ebx
 804c2b8:	81 ec 8c 10 00 00    	sub    $0x108c,%esp
 804c2be:	89 95 94 ef ff ff    	mov    %edx,-0x106c(%ebp)
 804c2c4:	c7 44 24 04 00 00 00 	movl   $0x0,0x4(%esp)
 804c2cb:	00 
 804c2cc:	89 0c 24             	mov    %ecx,(%esp)
 804c2cf:	e8 00 d7 ff ff       	call   80499d4 <open@plt>
 804c2d4:	83 f8 ff             	cmp    $0xffffffff,%eax
 804c2d7:	89 c6                	mov    %eax,%esi
 804c2d9:	74 55                	je     804c330 <main+0x2710>
 804c2db:	8b 55 08             	mov    0x8(%ebp),%edx
 804c2de:	8d 9d a0 ef ff ff    	lea    -0x1060(%ebp),%ebx
 804c2e4:	85 d2                	test   %edx,%edx
 804c2e6:	74 13                	je     804c2fb <main+0x26db>
 804c2e8:	eb 5b                	jmp    804c345 <main+0x2725>
 804c2ea:	8d b6 00 00 00 00    	lea    0x0(%esi),%esi
 804c2f0:	89 c1                	mov    %eax,%ecx
 804c2f2:	89 da                	mov    %ebx,%edx
 804c2f4:	89 f8                	mov    %edi,%eax
 804c2f6:	e8 55 fb ff ff       	call   804be50 <main+0x2230>
 804c2fb:	c7 44 24 08 00 10 00 	movl   $0x1000,0x8(%esp)
 804c302:	00 
 804c303:	89 5c 24 04          	mov    %ebx,0x4(%esp)
 804c307:	89 34 24             	mov    %esi,(%esp)
 804c30a:	e8 25 d4 ff ff       	call   8049734 <read@plt>
 804c30f:	85 c0                	test   %eax,%eax
 804c311:	7f dd                	jg     804c2f0 <main+0x26d0>
 804c313:	89 34 24             	mov    %esi,(%esp)
 804c316:	e8 29 d7 ff ff       	call   8049a44 <close@plt>
 804c31b:	81 c4 8c 10 00 00    	add    $0x108c,%esp
 804c321:	5b                   	pop    %ebx
 804c322:	5e                   	pop    %esi
 804c323:	5f                   	pop    %edi
 804c324:	5d                   	pop    %ebp
 804c325:	c3                   	ret    
 804c326:	8d 76 00             	lea    0x0(%esi),%esi
 804c329:	8d bc 27 00 00 00 00 	lea    0x0(%edi,%eiz,1),%edi
 804c330:	c7 87 e4 00 00 00 94 	movl   $0x194,0xe4(%edi)
 804c337:	01 00 00 
 804c33a:	81 c4 8c 10 00 00    	add    $0x108c,%esp
 804c340:	5b                   	pop    %ebx
 804c341:	5e                   	pop    %esi
 804c342:	5f                   	pop    %edi
 804c343:	5d                   	pop    %ebp
 804c344:	c3                   	ret    
 804c345:	8d 45 a0             	lea    -0x60(%ebp),%eax
 804c348:	89 44 24 04          	mov    %eax,0x4(%esp)
 804c34c:	89 34 24             	mov    %esi,(%esp)
 804c34f:	e8 40 d3 ff ff       	call   8049694 <fstat@plt>
 804c354:	ba 1b 4d 05 08       	mov    $0x8054d1b,%edx
 804c359:	83 f8 01             	cmp    $0x1,%eax
 804c35c:	19 c0                	sbb    %eax,%eax
 804c35e:	23 45 a8             	and    -0x58(%ebp),%eax
 804c361:	81 bd 94 ef ff ff 93 	cmpl   $0x193,-0x106c(%ebp)
 804c368:	01 00 00 
 804c36b:	74 33                	je     804c3a0 <main+0x2780>
 804c36d:	0f 8f 8f 00 00 00    	jg     804c402 <main+0x27e2>
 804c373:	81 bd 94 ef ff ff c8 	cmpl   $0xc8,-0x106c(%ebp)
 804c37a:	00 00 00 
 804c37d:	ba 18 4d 05 08       	mov    $0x8054d18,%edx
 804c382:	74 1c                	je     804c3a0 <main+0x2780>
 804c384:	81 bd 94 ef ff ff 90 	cmpl   $0x190,-0x106c(%ebp)
 804c38b:	01 00 00 
 804c38e:	ba 0c 4d 05 08       	mov    $0x8054d0c,%edx
 804c393:	0f 85 a4 00 00 00    	jne    804c43d <main+0x281d>
 804c399:	8d b4 26 00 00 00 00 	lea    0x0(%esi,%eiz,1),%esi
 804c3a0:	89 44 24 10          	mov    %eax,0x10(%esp)
 804c3a4:	8d 9d a0 ef ff ff    	lea    -0x1060(%ebp),%ebx
 804c3aa:	89 54 24 0c          	mov    %edx,0xc(%esp)
 804c3ae:	8b 85 94 ef ff ff    	mov    -0x106c(%ebp),%eax
 804c3b4:	c7 44 24 04 9c 4e 05 	movl   $0x8054e9c,0x4(%esp)
 804c3bb:	08 
 804c3bc:	89 1c 24             	mov    %ebx,(%esp)
 804c3bf:	89 44 24 08          	mov    %eax,0x8(%esp)
 804c3c3:	e8 3c d5 ff ff       	call   8049904 <sprintf@plt>
 804c3c8:	89 d9                	mov    %ebx,%ecx
 804c3ca:	8b 11                	mov    (%ecx),%edx
 804c3cc:	83 c1 04             	add    $0x4,%ecx
 804c3cf:	8d 82 ff fe fe fe    	lea    -0x1010101(%edx),%eax
 804c3d5:	f7 d2                	not    %edx
 804c3d7:	21 d0                	and    %edx,%eax
 804c3d9:	25 80 80 80 80       	and    $0x80808080,%eax
 804c3de:	74 ea                	je     804c3ca <main+0x27aa>
 804c3e0:	a9 80 80 00 00       	test   $0x8080,%eax
 804c3e5:	75 06                	jne    804c3ed <main+0x27cd>
 804c3e7:	c1 e8 10             	shr    $0x10,%eax
 804c3ea:	83 c1 02             	add    $0x2,%ecx
 804c3ed:	00 c0                	add    %al,%al
 804c3ef:	89 da                	mov    %ebx,%edx
 804c3f1:	83 d9 03             	sbb    $0x3,%ecx
 804c3f4:	89 f8                	mov    %edi,%eax
 804c3f6:	29 d9                	sub    %ebx,%ecx
 804c3f8:	e8 53 fa ff ff       	call   804be50 <main+0x2230>
 804c3fd:	e9 f9 fe ff ff       	jmp    804c2fb <main+0x26db>
 804c402:	81 bd 94 ef ff ff 9e 	cmpl   $0x19e,-0x106c(%ebp)
 804c409:	01 00 00 
 804c40c:	ba 2f 4d 05 08       	mov    $0x8054d2f,%edx
 804c411:	74 8d                	je     804c3a0 <main+0x2780>
 804c413:	81 bd 94 ef ff ff f5 	cmpl   $0x1f5,-0x106c(%ebp)
 804c41a:	01 00 00 
 804c41d:	ba 44 4d 05 08       	mov    $0x8054d44,%edx
 804c422:	0f 84 78 ff ff ff    	je     804c3a0 <main+0x2780>
 804c428:	81 bd 94 ef ff ff 94 	cmpl   $0x194,-0x106c(%ebp)
 804c42f:	01 00 00 
 804c432:	ba 25 4d 05 08       	mov    $0x8054d25,%edx
 804c437:	0f 84 63 ff ff ff    	je     804c3a0 <main+0x2780>
 804c43d:	ba 54 4d 05 08       	mov    $0x8054d54,%edx
 804c442:	e9 59 ff ff ff       	jmp    804c3a0 <main+0x2780>
 804c447:	89 f6                	mov    %esi,%esi
 804c449:	8d bc 27 00 00 00 00 	lea    0x0(%edi,%eiz,1),%edi
 804c450:	55                   	push   %ebp
 804c451:	89 e5                	mov    %esp,%ebp
 804c453:	83 ec 38             	sub    $0x38,%esp
 804c456:	83 7d 14 01          	cmpl   $0x1,0x14(%ebp)
 804c45a:	89 5d f4             	mov    %ebx,-0xc(%ebp)
 804c45d:	8b 5d 18             	mov    0x18(%ebp),%ebx
 804c460:	89 75 f8             	mov    %esi,-0x8(%ebp)
 804c463:	8b 75 10             	mov    0x10(%ebp),%esi
 804c466:	89 7d fc             	mov    %edi,-0x4(%ebp)
 804c469:	8b 7d 0c             	mov    0xc(%ebp),%edi
 804c46c:	74 12                	je     804c480 <main+0x2860>
 804c46e:	31 c0                	xor    %eax,%eax
 804c470:	8b 5d f4             	mov    -0xc(%ebp),%ebx
 804c473:	8b 75 f8             	mov    -0x8(%ebp),%esi
 804c476:	8b 7d fc             	mov    -0x4(%ebp),%edi
 804c479:	89 ec                	mov    %ebp,%esp
 804c47b:	5d                   	pop    %ebp
 804c47c:	c3                   	ret    
 804c47d:	8d 76 00             	lea    0x0(%esi),%esi
 804c480:	83 3e 02             	cmpl   $0x2,(%esi)
 804c483:	75 e9                	jne    804c46e <main+0x284e>
 804c485:	c7 43 04 00 00 00 00 	movl   $0x0,0x4(%ebx)
 804c48c:	8b 46 04             	mov    0x4(%esi),%eax
 804c48f:	c7 03 01 00 00 00    	movl   $0x1,(%ebx)
 804c495:	89 04 24             	mov    %eax,(%esp)
 804c498:	e8 27 d5 ff ff       	call   80499c4 <strlen@plt>
 804c49d:	89 c2                	mov    %eax,%edx
 804c49f:	8b 07                	mov    (%edi),%eax
 804c4a1:	89 55 e4             	mov    %edx,-0x1c(%ebp)
 804c4a4:	89 04 24             	mov    %eax,(%esp)
 804c4a7:	e8 18 d5 ff ff       	call   80499c4 <strlen@plt>
 804c4ac:	8b 55 e4             	mov    -0x1c(%ebp),%edx
 804c4af:	8d 44 02 01          	lea    0x1(%edx,%eax,1),%eax
 804c4b3:	89 04 24             	mov    %eax,(%esp)
 804c4b6:	e8 f9 d0 ff ff       	call   80495b4 <malloc@plt>
 804c4bb:	85 c0                	test   %eax,%eax
 804c4bd:	89 c1                	mov    %eax,%ecx
 804c4bf:	74 ad                	je     804c46e <main+0x284e>
 804c4c1:	8b 46 04             	mov    0x4(%esi),%eax
 804c4c4:	89 4d e4             	mov    %ecx,-0x1c(%ebp)
 804c4c7:	89 44 24 0c          	mov    %eax,0xc(%esp)
 804c4cb:	8b 07                	mov    (%edi),%eax
 804c4cd:	89 0c 24             	mov    %ecx,(%esp)
 804c4d0:	c7 44 24 04 d8 4d 05 	movl   $0x8054dd8,0x4(%esp)
 804c4d7:	08 
 804c4d8:	89 44 24 08          	mov    %eax,0x8(%esp)
 804c4dc:	e8 23 d4 ff ff       	call   8049904 <sprintf@plt>
 804c4e1:	8b 45 08             	mov    0x8(%ebp),%eax
 804c4e4:	31 d2                	xor    %edx,%edx
 804c4e6:	8b 4d e4             	mov    -0x1c(%ebp),%ecx
 804c4e9:	c7 04 24 00 00 00 00 	movl   $0x0,(%esp)
 804c4f0:	e8 bb fd ff ff       	call   804c2b0 <main+0x2690>
 804c4f5:	b8 01 00 00 00       	mov    $0x1,%eax
 804c4fa:	c7 03 01 00 00 00    	movl   $0x1,(%ebx)
 804c500:	c7 43 04 01 00 00 00 	movl   $0x1,0x4(%ebx)
 804c507:	e9 64 ff ff ff       	jmp    804c470 <main+0x2850>
 804c50c:	8d 74 26 00          	lea    0x0(%esi,%eiz,1),%esi
 804c510:	55                   	push   %ebp
 804c511:	89 e5                	mov    %esp,%ebp
 804c513:	56                   	push   %esi
 804c514:	53                   	push   %ebx
 804c515:	89 c3                	mov    %eax,%ebx
 804c517:	81 ec 10 02 00 00    	sub    $0x210,%esp
 804c51d:	8d b5 f8 fd ff ff    	lea    -0x208(%ebp),%esi
 804c523:	c7 44 24 08 c4 4e 05 	movl   $0x8054ec4,0x8(%esp)
 804c52a:	08 
 804c52b:	c7 44 24 04 6a 4d 05 	movl   $0x8054d6a,0x4(%esp)
 804c532:	08 
 804c533:	89 34 24             	mov    %esi,(%esp)
 804c536:	e8 c9 d3 ff ff       	call   8049904 <sprintf@plt>
 804c53b:	89 f1                	mov    %esi,%ecx
 804c53d:	8b 11                	mov    (%ecx),%edx
 804c53f:	83 c1 04             	add    $0x4,%ecx
 804c542:	8d 82 ff fe fe fe    	lea    -0x1010101(%edx),%eax
 804c548:	f7 d2                	not    %edx
 804c54a:	21 d0                	and    %edx,%eax
 804c54c:	25 80 80 80 80       	and    $0x80808080,%eax
 804c551:	74 ea                	je     804c53d <main+0x291d>
 804c553:	a9 80 80 00 00       	test   $0x8080,%eax
 804c558:	74 1a                	je     804c574 <main+0x2954>
 804c55a:	00 c0                	add    %al,%al
 804c55c:	89 f2                	mov    %esi,%edx
 804c55e:	83 d9 03             	sbb    $0x3,%ecx
 804c561:	89 d8                	mov    %ebx,%eax
 804c563:	29 f1                	sub    %esi,%ecx
 804c565:	e8 e6 f8 ff ff       	call   804be50 <main+0x2230>
 804c56a:	81 c4 10 02 00 00    	add    $0x210,%esp
 804c570:	5b                   	pop    %ebx
 804c571:	5e                   	pop    %esi
 804c572:	5d                   	pop    %ebp
 804c573:	c3                   	ret    
 804c574:	c1 e8 10             	shr    $0x10,%eax
 804c577:	83 c1 02             	add    $0x2,%ecx
 804c57a:	eb de                	jmp    804c55a <main+0x293a>
 804c57c:	8d 74 26 00          	lea    0x0(%esi,%eiz,1),%esi
 804c580:	55                   	push   %ebp
 804c581:	89 e5                	mov    %esp,%ebp
 804c583:	56                   	push   %esi
 804c584:	53                   	push   %ebx
 804c585:	89 c3                	mov    %eax,%ebx
 804c587:	81 ec 40 01 00 00    	sub    $0x140,%esp
 804c58d:	8d b5 cc fe ff ff    	lea    -0x134(%ebp),%esi
 804c593:	c7 44 24 0c 18 4d 05 	movl   $0x8054d18,0xc(%esp)
 804c59a:	08 
 804c59b:	c7 44 24 08 c8 00 00 	movl   $0xc8,0x8(%esp)
 804c5a2:	00 
 804c5a3:	c7 44 24 04 77 4d 05 	movl   $0x8054d77,0x4(%esp)
 804c5aa:	08 
 804c5ab:	89 34 24             	mov    %esi,(%esp)
 804c5ae:	e8 51 d3 ff ff       	call   8049904 <sprintf@plt>
 804c5b3:	89 f1                	mov    %esi,%ecx
 804c5b5:	8b 11                	mov    (%ecx),%edx
 804c5b7:	83 c1 04             	add    $0x4,%ecx
 804c5ba:	8d 82 ff fe fe fe    	lea    -0x1010101(%edx),%eax
 804c5c0:	f7 d2                	not    %edx
 804c5c2:	21 d0                	and    %edx,%eax
 804c5c4:	25 80 80 80 80       	and    $0x80808080,%eax
 804c5c9:	74 ea                	je     804c5b5 <main+0x2995>
 804c5cb:	a9 80 80 00 00       	test   $0x8080,%eax
 804c5d0:	74 1a                	je     804c5ec <main+0x29cc>
 804c5d2:	00 c0                	add    %al,%al
 804c5d4:	89 f2                	mov    %esi,%edx
 804c5d6:	83 d9 03             	sbb    $0x3,%ecx
 804c5d9:	89 d8                	mov    %ebx,%eax
 804c5db:	29 f1                	sub    %esi,%ecx
 804c5dd:	e8 6e f8 ff ff       	call   804be50 <main+0x2230>
 804c5e2:	81 c4 40 01 00 00    	add    $0x140,%esp
 804c5e8:	5b                   	pop    %ebx
 804c5e9:	5e                   	pop    %esi
 804c5ea:	5d                   	pop    %ebp
 804c5eb:	c3                   	ret    
 804c5ec:	c1 e8 10             	shr    $0x10,%eax
 804c5ef:	83 c1 02             	add    $0x2,%ecx
 804c5f2:	eb de                	jmp    804c5d2 <main+0x29b2>
 804c5f4:	8d b6 00 00 00 00    	lea    0x0(%esi),%esi
 804c5fa:	8d bf 00 00 00 00    	lea    0x0(%edi),%edi
 804c600:	55                   	push   %ebp
 804c601:	b9 42 00 00 00       	mov    $0x42,%ecx
 804c606:	89 e5                	mov    %esp,%ebp
 804c608:	57                   	push   %edi
 804c609:	56                   	push   %esi
 804c60a:	53                   	push   %ebx
 804c60b:	8d 85 58 fc ff ff    	lea    -0x3a8(%ebp),%eax
 804c611:	81 ec 1c 05 00 00    	sub    $0x51c,%esp
 804c617:	89 85 04 fb ff ff    	mov    %eax,-0x4fc(%ebp)
 804c61d:	8b bd 04 fb ff ff    	mov    -0x4fc(%ebp),%edi
 804c623:	31 c0                	xor    %eax,%eax
 804c625:	8d 95 60 fc ff ff    	lea    -0x3a0(%ebp),%edx
 804c62b:	c7 05 50 8e 05 08 00 	movl   $0x0,0x8058e50
 804c632:	00 00 00 
 804c635:	f3 ab                	rep stos %eax,%es:(%edi)
 804c637:	c7 44 24 04 ec 4e 05 	movl   $0x8054eec,0x4(%esp)
 804c63e:	08 
 804c63f:	89 14 24             	mov    %edx,(%esp)
 804c642:	e8 29 20 00 00       	call   804e670 <main+0x4a50>
 804c647:	85 c0                	test   %eax,%eax
 804c649:	75 15                	jne    804c660 <main+0x2a40>
 804c64b:	81 c4 1c 05 00 00    	add    $0x51c,%esp
 804c651:	5b                   	pop    %ebx
 804c652:	5e                   	pop    %esi
 804c653:	5f                   	pop    %edi
 804c654:	5d                   	pop    %ebp
 804c655:	c3                   	ret    
 804c656:	8d 76 00             	lea    0x0(%esi),%esi
 804c659:	8d bc 27 00 00 00 00 	lea    0x0(%edi,%eiz,1),%edi
 804c660:	8d bd 78 fc ff ff    	lea    -0x388(%ebp),%edi
 804c666:	c7 44 24 04 8a 4d 05 	movl   $0x8054d8a,0x4(%esp)
 804c66d:	08 
 804c66e:	89 3c 24             	mov    %edi,(%esp)
 804c671:	e8 fa 1f 00 00       	call   804e670 <main+0x4a50>
 804c676:	85 c0                	test   %eax,%eax
 804c678:	74 d1                	je     804c64b <main+0x2a2b>
 804c67a:	a1 40 8e 05 08       	mov    0x8058e40,%eax
 804c67f:	c7 44 24 08 99 4d 05 	movl   $0x8054d99,0x8(%esp)
 804c686:	08 
 804c687:	c7 44 24 04 9d 4d 05 	movl   $0x8054d9d,0x4(%esp)
 804c68e:	08 
 804c68f:	89 04 24             	mov    %eax,(%esp)
 804c692:	e8 29 0e 00 00       	call   804d4c0 <main+0x38a0>
 804c697:	e8 54 f5 ff ff       	call   804bbf0 <main+0x1fd0>
 804c69c:	85 c0                	test   %eax,%eax
 804c69e:	74 ab                	je     804c64b <main+0x2a2b>
 804c6a0:	89 85 5c fc ff ff    	mov    %eax,-0x3a4(%ebp)
 804c6a6:	8b 45 0c             	mov    0xc(%ebp),%eax
 804c6a9:	c7 44 24 10 01 00 00 	movl   $0x1,0x10(%esp)
 804c6b0:	00 
 804c6b1:	c7 44 24 0c 00 00 00 	movl   $0x40000000,0xc(%esp)
 804c6b8:	40 
 804c6b9:	c7 04 24 00 00 00 00 	movl   $0x0,(%esp)
 804c6c0:	89 44 24 08          	mov    %eax,0x8(%esp)
 804c6c4:	8b 45 08             	mov    0x8(%ebp),%eax
 804c6c7:	89 44 24 04          	mov    %eax,0x4(%esp)
 804c6cb:	e8 e4 d0 ff ff       	call   80497b4 <ConnectAttach@plt>
 804c6d0:	83 f8 ff             	cmp    $0xffffffff,%eax
 804c6d3:	0f 84 72 ff ff ff    	je     804c64b <main+0x2a2b>
 804c6d9:	8d 95 90 fc ff ff    	lea    -0x370(%ebp),%edx
 804c6df:	89 54 24 0c          	mov    %edx,0xc(%esp)
 804c6e3:	8d bd 1c fd ff ff    	lea    -0x2e4(%ebp),%edi
 804c6e9:	8d 95 b0 fe ff ff    	lea    -0x150(%ebp),%edx
 804c6ef:	c7 85 b0 fe ff ff 04 	movl   $0x4,-0x150(%ebp)
 804c6f6:	00 00 00 
 804c6f9:	89 85 58 fc ff ff    	mov    %eax,-0x3a8(%ebp)
 804c6ff:	c7 44 24 10 80 00 00 	movl   $0x80,0x10(%esp)
 804c706:	00 
 804c707:	c7 44 24 08 a8 00 00 	movl   $0xa8,0x8(%esp)
 804c70e:	00 
 804c70f:	89 54 24 04          	mov    %edx,0x4(%esp)
 804c713:	89 04 24             	mov    %eax,(%esp)
 804c716:	e8 99 cd ff ff       	call   80494b4 <MsgSend@plt>
 804c71b:	89 bd 00 fb ff ff    	mov    %edi,-0x500(%ebp)
 804c721:	eb 0d                	jmp    804c730 <main+0x2b10>
 804c723:	90                   	nop
 804c724:	90                   	nop
 804c725:	90                   	nop
 804c726:	90                   	nop
 804c727:	90                   	nop
 804c728:	90                   	nop
 804c729:	90                   	nop
 804c72a:	90                   	nop
 804c72b:	90                   	nop
 804c72c:	90                   	nop
 804c72d:	90                   	nop
 804c72e:	90                   	nop
 804c72f:	90                   	nop
 804c730:	8d 85 b0 fe ff ff    	lea    -0x150(%ebp),%eax
 804c736:	89 44 24 0c          	mov    %eax,0xc(%esp)
 804c73a:	8b 85 58 fc ff ff    	mov    -0x3a8(%ebp),%eax
 804c740:	8d 95 08 fe ff ff    	lea    -0x1f8(%ebp),%edx
 804c746:	c7 85 08 fe ff ff 00 	movl   $0x0,-0x1f8(%ebp)
 804c74d:	00 00 00 
 804c750:	c7 44 24 10 a8 00 00 	movl   $0xa8,0x10(%esp)
 804c757:	00 
 804c758:	c7 44 24 08 a8 00 00 	movl   $0xa8,0x8(%esp)
 804c75f:	00 
 804c760:	89 54 24 04          	mov    %edx,0x4(%esp)
 804c764:	89 04 24             	mov    %eax,(%esp)
 804c767:	e8 48 cd ff ff       	call   80494b4 <MsgSend@plt>
 804c76c:	85 c0                	test   %eax,%eax
 804c76e:	0f 85 d7 fe ff ff    	jne    804c64b <main+0x2a2b>
 804c774:	83 bd b0 fe ff ff 01 	cmpl   $0x1,-0x150(%ebp)
 804c77b:	0f 85 ca fe ff ff    	jne    804c64b <main+0x2a2b>
 804c781:	8b 85 b4 fe ff ff    	mov    -0x14c(%ebp),%eax
 804c787:	80 bd d8 fe ff ff 00 	cmpb   $0x0,-0x128(%ebp)
 804c78e:	c7 85 3c fd ff ff c8 	movl   $0xc8,-0x2c4(%ebp)
 804c795:	00 00 00 
 804c798:	89 85 10 fd ff ff    	mov    %eax,-0x2f0(%ebp)
 804c79e:	8b 85 b8 fe ff ff    	mov    -0x148(%ebp),%eax
 804c7a4:	89 85 14 fd ff ff    	mov    %eax,-0x2ec(%ebp)
 804c7aa:	8b 85 bc fe ff ff    	mov    -0x144(%ebp),%eax
 804c7b0:	89 85 18 fd ff ff    	mov    %eax,-0x2e8(%ebp)
 804c7b6:	8b 85 c0 fe ff ff    	mov    -0x140(%ebp),%eax
 804c7bc:	89 85 1c fd ff ff    	mov    %eax,-0x2e4(%ebp)
 804c7c2:	8b 85 c4 fe ff ff    	mov    -0x13c(%ebp),%eax
 804c7c8:	89 85 20 fd ff ff    	mov    %eax,-0x2e0(%ebp)
 804c7ce:	8b 85 c8 fe ff ff    	mov    -0x138(%ebp),%eax
 804c7d4:	89 85 24 fd ff ff    	mov    %eax,-0x2dc(%ebp)
 804c7da:	8b 85 cc fe ff ff    	mov    -0x134(%ebp),%eax
 804c7e0:	89 85 28 fd ff ff    	mov    %eax,-0x2d8(%ebp)
 804c7e6:	8b 85 d0 fe ff ff    	mov    -0x130(%ebp),%eax
 804c7ec:	89 85 2c fd ff ff    	mov    %eax,-0x2d4(%ebp)
 804c7f2:	0f 85 28 03 00 00    	jne    804cb20 <main+0x2f00>
 804c7f8:	c7 85 30 fd ff ff 00 	movl   $0x0,-0x2d0(%ebp)
 804c7ff:	00 00 00 
 804c802:	c7 85 34 fd ff ff ff 	movl   $0xffffffff,-0x2cc(%ebp)
 804c809:	ff ff ff 
 804c80c:	c7 85 38 fd ff ff 00 	movl   $0x0,-0x2c8(%ebp)
 804c813:	00 00 00 
 804c816:	c7 44 24 0c 20 be 04 	movl   $0x804be20,0xc(%esp)
 804c81d:	08 
 804c81e:	bf 60 78 05 08       	mov    $0x8057860,%edi
 804c823:	c7 44 24 08 10 d9 04 	movl   $0x804d910,0x8(%esp)
 804c82a:	08 
 804c82b:	c7 44 24 04 d0 d8 04 	movl   $0x804d8d0,0x4(%esp)
 804c832:	08 
 804c833:	c7 04 24 08 00 00 00 	movl   $0x8,(%esp)
 804c83a:	e8 c1 11 00 00       	call   804da00 <main+0x3de0>
 804c83f:	8b b5 00 fb ff ff    	mov    -0x500(%ebp),%esi
 804c845:	b9 10 00 00 00       	mov    $0x10,%ecx
 804c84a:	89 85 54 fd ff ff    	mov    %eax,-0x2ac(%ebp)
 804c850:	f3 a6                	repz cmpsb %es:(%edi),%ds:(%esi)
 804c852:	8d 7d e4             	lea    -0x1c(%ebp),%edi
 804c855:	c7 44 24 08 05 00 00 	movl   $0x5,0x8(%esp)
 804c85c:	00 
 804c85d:	c7 44 24 04 b7 4d 05 	movl   $0x8054db7,0x4(%esp)
 804c864:	08 
 804c865:	0f 94 c0             	sete   %al
 804c868:	0f b6 c0             	movzbl %al,%eax
 804c86b:	89 85 40 fd ff ff    	mov    %eax,-0x2c0(%ebp)
 804c871:	a1 40 8e 05 08       	mov    0x8058e40,%eax
 804c876:	89 04 24             	mov    %eax,(%esp)
 804c879:	e8 72 0c 00 00       	call   804d4f0 <main+0x38d0>
 804c87e:	c7 45 d8 00 00 00 00 	movl   $0x0,-0x28(%ebp)
 804c885:	c7 45 dc 00 00 00 00 	movl   $0x0,-0x24(%ebp)
 804c88c:	c7 45 e0 00 00 00 00 	movl   $0x0,-0x20(%ebp)
 804c893:	c7 45 c4 01 00 00 00 	movl   $0x1,-0x3c(%ebp)
 804c89a:	c7 45 c8 0f 00 00 00 	movl   $0xf,-0x38(%ebp)
 804c8a1:	89 45 d4             	mov    %eax,-0x2c(%ebp)
 804c8a4:	8d 45 c4             	lea    -0x3c(%ebp),%eax
 804c8a7:	89 7c 24 08          	mov    %edi,0x8(%esp)
 804c8ab:	89 44 24 04          	mov    %eax,0x4(%esp)
 804c8af:	c7 04 24 00 00 00 00 	movl   $0x0,(%esp)
 804c8b6:	e8 69 cc ff ff       	call   8049524 <timer_create@plt>
 804c8bb:	8d 45 d4             	lea    -0x2c(%ebp),%eax
 804c8be:	89 44 24 08          	mov    %eax,0x8(%esp)
 804c8c2:	8b 45 e4             	mov    -0x1c(%ebp),%eax
 804c8c5:	c7 44 24 0c 00 00 00 	movl   $0x0,0xc(%esp)
 804c8cc:	00 
 804c8cd:	c7 44 24 04 00 00 00 	movl   $0x0,0x4(%esp)
 804c8d4:	00 
 804c8d5:	89 04 24             	mov    %eax,(%esp)
 804c8d8:	e8 37 d1 ff ff       	call   8049a14 <timer_settime@plt>
 804c8dd:	8b b5 d4 fe ff ff    	mov    -0x12c(%ebp),%esi
 804c8e3:	8d 95 60 fc ff ff    	lea    -0x3a0(%ebp),%edx
 804c8e9:	89 14 24             	mov    %edx,(%esp)
 804c8ec:	89 74 24 04          	mov    %esi,0x4(%esp)
 804c8f0:	e8 3b 21 00 00       	call   804ea30 <main+0x4e10>
 804c8f5:	89 34 24             	mov    %esi,(%esp)
 804c8f8:	89 c3                	mov    %eax,%ebx
 804c8fa:	e8 c5 d0 ff ff       	call   80499c4 <strlen@plt>
 804c8ff:	39 c3                	cmp    %eax,%ebx
 804c901:	0f 84 89 02 00 00    	je     804cb90 <main+0x2f70>
 804c907:	c7 85 3c fd ff ff 90 	movl   $0x190,-0x2c4(%ebp)
 804c90e:	01 00 00 
 804c911:	8b 9d 3c fd ff ff    	mov    -0x2c4(%ebp),%ebx
 804c917:	a1 40 8e 05 08       	mov    0x8058e40,%eax
 804c91c:	8d b5 2c fb ff ff    	lea    -0x4d4(%ebp),%esi
 804c922:	c7 85 3c fd ff ff c8 	movl   $0xc8,-0x2c4(%ebp)
 804c929:	00 00 00 
 804c92c:	c7 44 24 08 80 4e 05 	movl   $0x8054e80,0x8(%esp)
 804c933:	08 
 804c934:	c7 44 24 04 87 4e 05 	movl   $0x8054e87,0x4(%esp)
 804c93b:	08 
 804c93c:	89 04 24             	mov    %eax,(%esp)
 804c93f:	e8 7c 0b 00 00       	call   804d4c0 <main+0x38a0>
 804c944:	89 5c 24 0c          	mov    %ebx,0xc(%esp)
 804c948:	c7 44 24 04 91 4e 05 	movl   $0x8054e91,0x4(%esp)
 804c94f:	08 
 804c950:	89 34 24             	mov    %esi,(%esp)
 804c953:	89 44 24 08          	mov    %eax,0x8(%esp)
 804c957:	e8 a8 cf ff ff       	call   8049904 <sprintf@plt>
 804c95c:	89 f1                	mov    %esi,%ecx
 804c95e:	89 da                	mov    %ebx,%edx
 804c960:	8d 85 58 fc ff ff    	lea    -0x3a8(%ebp),%eax
 804c966:	c7 04 24 01 00 00 00 	movl   $0x1,(%esp)
 804c96d:	e8 3e f9 ff ff       	call   804c2b0 <main+0x2690>
 804c972:	81 bd 3c fd ff ff c8 	cmpl   $0xc8,-0x2c4(%ebp)
 804c979:	00 00 00 
 804c97c:	74 4a                	je     804c9c8 <main+0x2da8>
 804c97e:	81 fb 93 01 00 00    	cmp    $0x193,%ebx
 804c984:	b8 1b 4d 05 08       	mov    $0x8054d1b,%eax
 804c989:	74 25                	je     804c9b0 <main+0x2d90>
 804c98b:	0f 8f cf 03 00 00    	jg     804cd60 <main+0x3140>
 804c991:	81 fb c8 00 00 00    	cmp    $0xc8,%ebx
 804c997:	b8 18 4d 05 08       	mov    $0x8054d18,%eax
 804c99c:	74 12                	je     804c9b0 <main+0x2d90>
 804c99e:	81 fb 90 01 00 00    	cmp    $0x190,%ebx
 804c9a4:	b8 0c 4d 05 08       	mov    $0x8054d0c,%eax
 804c9a9:	74 05                	je     804c9b0 <main+0x2d90>
 804c9ab:	b8 54 4d 05 08       	mov    $0x8054d54,%eax
 804c9b0:	89 44 24 0c          	mov    %eax,0xc(%esp)
 804c9b4:	89 5c 24 08          	mov    %ebx,0x8(%esp)
 804c9b8:	c7 44 24 04 77 4d 05 	movl   $0x8054d77,0x4(%esp)
 804c9bf:	08 
 804c9c0:	89 34 24             	mov    %esi,(%esp)
 804c9c3:	e8 3c cf ff ff       	call   8049904 <sprintf@plt>
 804c9c8:	89 f1                	mov    %esi,%ecx
 804c9ca:	8b 11                	mov    (%ecx),%edx
 804c9cc:	83 c1 04             	add    $0x4,%ecx
 804c9cf:	8d 82 ff fe fe fe    	lea    -0x1010101(%edx),%eax
 804c9d5:	f7 d2                	not    %edx
 804c9d7:	21 d0                	and    %edx,%eax
 804c9d9:	25 80 80 80 80       	and    $0x80808080,%eax
 804c9de:	74 ea                	je     804c9ca <main+0x2daa>
 804c9e0:	a9 80 80 00 00       	test   $0x8080,%eax
 804c9e5:	75 06                	jne    804c9ed <main+0x2dcd>
 804c9e7:	c1 e8 10             	shr    $0x10,%eax
 804c9ea:	83 c1 02             	add    $0x2,%ecx
 804c9ed:	00 c0                	add    %al,%al
 804c9ef:	89 f2                	mov    %esi,%edx
 804c9f1:	83 d9 03             	sbb    $0x3,%ecx
 804c9f4:	29 f1                	sub    %esi,%ecx
 804c9f6:	8d 85 58 fc ff ff    	lea    -0x3a8(%ebp),%eax
 804c9fc:	e8 4f f4 ff ff       	call   804be50 <main+0x2230>
 804ca01:	8b 85 10 fd ff ff    	mov    -0x2f0(%ebp),%eax
 804ca07:	c7 85 60 fd ff ff 03 	movl   $0x3,-0x2a0(%ebp)
 804ca0e:	00 00 00 
 804ca11:	c7 44 24 10 00 00 00 	movl   $0x0,0x10(%esp)
 804ca18:	00 
 804ca19:	c7 44 24 0c 00 00 00 	movl   $0x0,0xc(%esp)
 804ca20:	00 
 804ca21:	89 85 64 fd ff ff    	mov    %eax,-0x29c(%ebp)
 804ca27:	8d 85 60 fd ff ff    	lea    -0x2a0(%ebp),%eax
 804ca2d:	89 44 24 04          	mov    %eax,0x4(%esp)
 804ca31:	8b 85 58 fc ff ff    	mov    -0x3a8(%ebp),%eax
 804ca37:	c7 44 24 08 a8 00 00 	movl   $0xa8,0x8(%esp)
 804ca3e:	00 
 804ca3f:	89 04 24             	mov    %eax,(%esp)
 804ca42:	e8 6d ca ff ff       	call   80494b4 <MsgSend@plt>
 804ca47:	8b 45 e4             	mov    -0x1c(%ebp),%eax
 804ca4a:	89 04 24             	mov    %eax,(%esp)
 804ca4d:	e8 52 cb ff ff       	call   80495a4 <timer_delete@plt>
 804ca52:	8b 85 58 fd ff ff    	mov    -0x2a8(%ebp),%eax
 804ca58:	89 04 24             	mov    %eax,(%esp)
 804ca5b:	e8 f4 cf ff ff       	call   8049a54 <free@plt>
 804ca60:	8b 85 54 fd ff ff    	mov    -0x2ac(%ebp),%eax
 804ca66:	c7 85 58 fd ff ff 00 	movl   $0x0,-0x2a8(%ebp)
 804ca6d:	00 00 00 
 804ca70:	89 04 24             	mov    %eax,(%esp)
 804ca73:	e8 18 10 00 00       	call   804da90 <main+0x3e70>
 804ca78:	8b 85 34 fd ff ff    	mov    -0x2cc(%ebp),%eax
 804ca7e:	c7 85 54 fd ff ff 00 	movl   $0x0,-0x2ac(%ebp)
 804ca85:	00 00 00 
 804ca88:	83 f8 ff             	cmp    $0xffffffff,%eax
 804ca8b:	74 12                	je     804ca9f <main+0x2e7f>
 804ca8d:	89 04 24             	mov    %eax,(%esp)
 804ca90:	e8 af cf ff ff       	call   8049a44 <close@plt>
 804ca95:	c7 85 34 fd ff ff ff 	movl   $0xffffffff,-0x2cc(%ebp)
 804ca9c:	ff ff ff 
 804ca9f:	8b 85 44 fd ff ff    	mov    -0x2bc(%ebp),%eax
 804caa5:	89 04 24             	mov    %eax,(%esp)
 804caa8:	e8 a7 cf ff ff       	call   8049a54 <free@plt>
 804caad:	8b 85 48 fd ff ff    	mov    -0x2b8(%ebp),%eax
 804cab3:	c7 85 44 fd ff ff 00 	movl   $0x0,-0x2bc(%ebp)
 804caba:	00 00 00 
 804cabd:	89 04 24             	mov    %eax,(%esp)
 804cac0:	e8 8f cf ff ff       	call   8049a54 <free@plt>
 804cac5:	8b 85 4c fd ff ff    	mov    -0x2b4(%ebp),%eax
 804cacb:	c7 85 48 fd ff ff 00 	movl   $0x0,-0x2b8(%ebp)
 804cad2:	00 00 00 
 804cad5:	89 04 24             	mov    %eax,(%esp)
 804cad8:	e8 77 cf ff ff       	call   8049a54 <free@plt>
 804cadd:	8b 85 50 fd ff ff    	mov    -0x2b0(%ebp),%eax
 804cae3:	c7 85 4c fd ff ff 00 	movl   $0x0,-0x2b4(%ebp)
 804caea:	00 00 00 
 804caed:	89 04 24             	mov    %eax,(%esp)
 804caf0:	e8 5f cf ff ff       	call   8049a54 <free@plt>
 804caf5:	8b 85 5c fd ff ff    	mov    -0x2a4(%ebp),%eax
 804cafb:	c7 85 50 fd ff ff 00 	movl   $0x0,-0x2b0(%ebp)
 804cb02:	00 00 00 
 804cb05:	89 04 24             	mov    %eax,(%esp)
 804cb08:	e8 47 cf ff ff       	call   8049a54 <free@plt>
 804cb0d:	c7 85 5c fd ff ff 00 	movl   $0x0,-0x2a4(%ebp)
 804cb14:	00 00 00 
 804cb17:	e9 14 fc ff ff       	jmp    804c730 <main+0x2b10>
 804cb1c:	8d 74 26 00          	lea    0x0(%esi,%eiz,1),%esi
 804cb20:	8d bd d8 fe ff ff    	lea    -0x128(%ebp),%edi
 804cb26:	89 bd 30 fd ff ff    	mov    %edi,-0x2d0(%ebp)
 804cb2c:	c7 44 24 04 00 00 00 	movl   $0x0,0x4(%esp)
 804cb33:	00 
 804cb34:	89 3c 24             	mov    %edi,(%esp)
 804cb37:	e8 98 ce ff ff       	call   80499d4 <open@plt>
 804cb3c:	8d 95 58 ff ff ff    	lea    -0xa8(%ebp),%edx
 804cb42:	89 54 24 04          	mov    %edx,0x4(%esp)
 804cb46:	89 85 34 fd ff ff    	mov    %eax,-0x2cc(%ebp)
 804cb4c:	89 04 24             	mov    %eax,(%esp)
 804cb4f:	e8 40 cb ff ff       	call   8049694 <fstat@plt>
 804cb54:	c7 44 24 04 a7 4d 05 	movl   $0x8054da7,0x4(%esp)
 804cb5b:	08 
 804cb5c:	c7 04 24 80 79 05 08 	movl   $0x8057980,(%esp)
 804cb63:	83 f8 01             	cmp    $0x1,%eax
 804cb66:	19 c0                	sbb    %eax,%eax
 804cb68:	23 85 60 ff ff ff    	and    -0xa0(%ebp),%eax
 804cb6e:	89 85 38 fd ff ff    	mov    %eax,-0x2c8(%ebp)
 804cb74:	89 44 24 0c          	mov    %eax,0xc(%esp)
 804cb78:	8b 85 30 fd ff ff    	mov    -0x2d0(%ebp),%eax
 804cb7e:	89 44 24 08          	mov    %eax,0x8(%esp)
 804cb82:	e8 1d cb ff ff       	call   80496a4 <fprintf@plt>
 804cb87:	e9 8a fc ff ff       	jmp    804c816 <main+0x2bf6>
 804cb8c:	8d 74 26 00          	lea    0x0(%esi,%eiz,1),%esi
 804cb90:	8d bd 60 fc ff ff    	lea    -0x3a0(%ebp),%edi
 804cb96:	89 3c 24             	mov    %edi,(%esp)
 804cb99:	c7 44 24 04 00 00 00 	movl   $0x0,0x4(%esp)
 804cba0:	00 
 804cba1:	e8 5a 1c 00 00       	call   804e800 <main+0x4be0>
 804cba6:	c7 44 24 04 01 00 00 	movl   $0x1,0x4(%esp)
 804cbad:	00 
 804cbae:	89 85 44 fd ff ff    	mov    %eax,-0x2bc(%ebp)
 804cbb4:	89 c7                	mov    %eax,%edi
 804cbb6:	8d 85 60 fc ff ff    	lea    -0x3a0(%ebp),%eax
 804cbbc:	89 04 24             	mov    %eax,(%esp)
 804cbbf:	e8 3c 1c 00 00       	call   804e800 <main+0x4be0>
 804cbc4:	8d 95 60 fc ff ff    	lea    -0x3a0(%ebp),%edx
 804cbca:	89 14 24             	mov    %edx,(%esp)
 804cbcd:	c7 44 24 04 02 00 00 	movl   $0x2,0x4(%esp)
 804cbd4:	00 
 804cbd5:	89 c3                	mov    %eax,%ebx
 804cbd7:	89 85 48 fd ff ff    	mov    %eax,-0x2b8(%ebp)
 804cbdd:	e8 1e 1c 00 00       	call   804e800 <main+0x4be0>
 804cbe2:	c7 44 24 04 03 00 00 	movl   $0x3,0x4(%esp)
 804cbe9:	00 
 804cbea:	89 85 4c fd ff ff    	mov    %eax,-0x2b4(%ebp)
 804cbf0:	8d 85 60 fc ff ff    	lea    -0x3a0(%ebp),%eax
 804cbf6:	89 04 24             	mov    %eax,(%esp)
 804cbf9:	e8 02 1c 00 00       	call   804e800 <main+0x4be0>
 804cbfe:	85 db                	test   %ebx,%ebx
 804cc00:	89 85 50 fd ff ff    	mov    %eax,-0x2b0(%ebp)
 804cc06:	0f 84 fb fc ff ff    	je     804c907 <main+0x2ce7>
 804cc0c:	85 ff                	test   %edi,%edi
 804cc0e:	0f 84 f3 fc ff ff    	je     804c907 <main+0x2ce7>
 804cc14:	85 c0                	test   %eax,%eax
 804cc16:	0f 84 eb fc ff ff    	je     804c907 <main+0x2ce7>
 804cc1c:	89 34 24             	mov    %esi,(%esp)
 804cc1f:	31 ff                	xor    %edi,%edi
 804cc21:	e8 9e cd ff ff       	call   80499c4 <strlen@plt>
 804cc26:	8d 5c 06 02          	lea    0x2(%esi,%eax,1),%ebx
 804cc2a:	b8 01 00 00 00       	mov    $0x1,%eax
 804cc2f:	80 3b 00             	cmpb   $0x0,(%ebx)
 804cc32:	74 23                	je     804cc57 <main+0x3037>
 804cc34:	8d b6 00 00 00 00    	lea    0x0(%esi),%esi
 804cc3a:	8d bf 00 00 00 00    	lea    0x0(%edi),%edi
 804cc40:	89 1c 24             	mov    %ebx,(%esp)
 804cc43:	83 c7 01             	add    $0x1,%edi
 804cc46:	e8 79 cd ff ff       	call   80499c4 <strlen@plt>
 804cc4b:	8d 5c 03 02          	lea    0x2(%ebx,%eax,1),%ebx
 804cc4f:	80 3b 00             	cmpb   $0x0,(%ebx)
 804cc52:	75 ec                	jne    804cc40 <main+0x3020>
 804cc54:	8d 47 01             	lea    0x1(%edi),%eax
 804cc57:	c7 44 24 04 04 00 00 	movl   $0x4,0x4(%esp)
 804cc5e:	00 
 804cc5f:	31 ff                	xor    %edi,%edi
 804cc61:	89 04 24             	mov    %eax,(%esp)
 804cc64:	e8 fb c9 ff ff       	call   8049664 <calloc@plt>
 804cc69:	89 34 24             	mov    %esi,(%esp)
 804cc6c:	89 85 58 fd ff ff    	mov    %eax,-0x2a8(%ebp)
 804cc72:	89 85 10 fb ff ff    	mov    %eax,-0x4f0(%ebp)
 804cc78:	e8 47 cd ff ff       	call   80499c4 <strlen@plt>
 804cc7d:	8b 95 10 fb ff ff    	mov    -0x4f0(%ebp),%edx
 804cc83:	8d 5c 06 02          	lea    0x2(%esi,%eax,1),%ebx
 804cc87:	31 c0                	xor    %eax,%eax
 804cc89:	80 3b 00             	cmpb   $0x0,(%ebx)
 804cc8c:	75 1f                	jne    804ccad <main+0x308d>
 804cc8e:	e9 1a 01 00 00       	jmp    804cdad <main+0x318d>
 804cc93:	8d b6 00 00 00 00    	lea    0x0(%esi),%esi
 804cc99:	8d bc 27 00 00 00 00 	lea    0x0(%edi,%eiz,1),%edi
 804cca0:	8d 5c 03 02          	lea    0x2(%ebx,%eax,1),%ebx
 804cca4:	80 3b 00             	cmpb   $0x0,(%ebx)
 804cca7:	0f 84 f3 00 00 00    	je     804cda0 <main+0x3180>
 804ccad:	8d 95 78 fc ff ff    	lea    -0x388(%ebp),%edx
 804ccb3:	89 14 24             	mov    %edx,(%esp)
 804ccb6:	89 5c 24 04          	mov    %ebx,0x4(%esp)
 804ccba:	e8 71 1d 00 00       	call   804ea30 <main+0x4e10>
 804ccbf:	89 1c 24             	mov    %ebx,(%esp)
 804ccc2:	89 c6                	mov    %eax,%esi
 804ccc4:	e8 fb cc ff ff       	call   80499c4 <strlen@plt>
 804ccc9:	39 c6                	cmp    %eax,%esi
 804cccb:	75 d3                	jne    804cca0 <main+0x3080>
 804cccd:	8d 85 78 fc ff ff    	lea    -0x388(%ebp),%eax
 804ccd3:	c7 44 24 04 00 00 00 	movl   $0x0,0x4(%esp)
 804ccda:	00 
 804ccdb:	89 04 24             	mov    %eax,(%esp)
 804ccde:	e8 1d 1b 00 00       	call   804e800 <main+0x4be0>
 804cce3:	8d 95 78 fc ff ff    	lea    -0x388(%ebp),%edx
 804cce9:	89 14 24             	mov    %edx,(%esp)
 804ccec:	c7 44 24 04 01 00 00 	movl   $0x1,0x4(%esp)
 804ccf3:	00 
 804ccf4:	89 c6                	mov    %eax,%esi
 804ccf6:	e8 05 1b 00 00       	call   804e800 <main+0x4be0>
 804ccfb:	85 c0                	test   %eax,%eax
 804ccfd:	89 c2                	mov    %eax,%edx
 804ccff:	74 36                	je     804cd37 <main+0x3117>
 804cd01:	85 f6                	test   %esi,%esi
 804cd03:	74 32                	je     804cd37 <main+0x3117>
 804cd05:	89 44 24 08          	mov    %eax,0x8(%esp)
 804cd09:	8b 85 54 fd ff ff    	mov    -0x2ac(%ebp),%eax
 804cd0f:	89 95 10 fb ff ff    	mov    %edx,-0x4f0(%ebp)
 804cd15:	c7 44 24 0c 00 00 00 	movl   $0x0,0xc(%esp)
 804cd1c:	00 
 804cd1d:	89 74 24 04          	mov    %esi,0x4(%esp)
 804cd21:	89 04 24             	mov    %eax,(%esp)
 804cd24:	e8 07 0c 00 00       	call   804d930 <main+0x3d10>
 804cd29:	8b 95 10 fb ff ff    	mov    -0x4f0(%ebp),%edx
 804cd2f:	85 c0                	test   %eax,%eax
 804cd31:	0f 85 09 01 00 00    	jne    804ce40 <main+0x3220>
 804cd37:	89 95 10 fb ff ff    	mov    %edx,-0x4f0(%ebp)
 804cd3d:	89 34 24             	mov    %esi,(%esp)
 804cd40:	e8 0f cd ff ff       	call   8049a54 <free@plt>
 804cd45:	8b 95 10 fb ff ff    	mov    -0x4f0(%ebp),%edx
 804cd4b:	89 14 24             	mov    %edx,(%esp)
 804cd4e:	e8 01 cd ff ff       	call   8049a54 <free@plt>
 804cd53:	89 1c 24             	mov    %ebx,(%esp)
 804cd56:	e8 69 cc ff ff       	call   80499c4 <strlen@plt>
 804cd5b:	e9 40 ff ff ff       	jmp    804cca0 <main+0x3080>
 804cd60:	81 fb 9e 01 00 00    	cmp    $0x19e,%ebx
 804cd66:	b8 2f 4d 05 08       	mov    $0x8054d2f,%eax
 804cd6b:	0f 84 3f fc ff ff    	je     804c9b0 <main+0x2d90>
 804cd71:	81 fb f5 01 00 00    	cmp    $0x1f5,%ebx
 804cd77:	b8 44 4d 05 08       	mov    $0x8054d44,%eax
 804cd7c:	0f 84 2e fc ff ff    	je     804c9b0 <main+0x2d90>
 804cd82:	81 fb 94 01 00 00    	cmp    $0x194,%ebx
 804cd88:	b8 25 4d 05 08       	mov    $0x8054d25,%eax
 804cd8d:	0f 85 18 fc ff ff    	jne    804c9ab <main+0x2d8b>
 804cd93:	e9 18 fc ff ff       	jmp    804c9b0 <main+0x2d90>
 804cd98:	90                   	nop
 804cd99:	8d b4 26 00 00 00 00 	lea    0x0(%esi,%eiz,1),%esi
 804cda0:	8b 95 58 fd ff ff    	mov    -0x2a8(%ebp),%edx
 804cda6:	8d 04 bd 00 00 00 00 	lea    0x0(,%edi,4),%eax
 804cdad:	8b 9d 3c fd ff ff    	mov    -0x2c4(%ebp),%ebx
 804cdb3:	c7 04 02 00 00 00 00 	movl   $0x0,(%edx,%eax,1)
 804cdba:	81 fb c8 00 00 00    	cmp    $0xc8,%ebx
 804cdc0:	0f 85 51 fb ff ff    	jne    804c917 <main+0x2cf7>
 804cdc6:	8b 85 5c fc ff ff    	mov    -0x3a4(%ebp),%eax
 804cdcc:	89 04 24             	mov    %eax,(%esp)
 804cdcf:	e8 f0 cb ff ff       	call   80499c4 <strlen@plt>
 804cdd4:	8b 9d 48 fd ff ff    	mov    -0x2b8(%ebp),%ebx
 804cdda:	89 1c 24             	mov    %ebx,(%esp)
 804cddd:	89 c6                	mov    %eax,%esi
 804cddf:	e8 e0 cb ff ff       	call   80499c4 <strlen@plt>
 804cde4:	80 3b 00             	cmpb   $0x0,(%ebx)
 804cde7:	8d 74 06 01          	lea    0x1(%esi,%eax,1),%esi
 804cdeb:	74 07                	je     804cdf4 <main+0x31d4>
 804cded:	80 7c 03 ff 2f       	cmpb   $0x2f,-0x1(%ebx,%eax,1)
 804cdf2:	74 65                	je     804ce59 <main+0x3239>
 804cdf4:	31 db                	xor    %ebx,%ebx
 804cdf6:	81 fe 00 04 00 00    	cmp    $0x400,%esi
 804cdfc:	0f 8e 8e 00 00 00    	jle    804ce90 <main+0x3270>
 804ce02:	c7 85 3c fd ff ff 9e 	movl   $0x19e,-0x2c4(%ebp)
 804ce09:	01 00 00 
 804ce0c:	31 f6                	xor    %esi,%esi
 804ce0e:	31 db                	xor    %ebx,%ebx
 804ce10:	89 1c 24             	mov    %ebx,(%esp)
 804ce13:	e8 3c cc ff ff       	call   8049a54 <free@plt>
 804ce18:	89 34 24             	mov    %esi,(%esp)
 804ce1b:	e8 34 cc ff ff       	call   8049a54 <free@plt>
 804ce20:	8b 9d 3c fd ff ff    	mov    -0x2c4(%ebp),%ebx
 804ce26:	81 fb c8 00 00 00    	cmp    $0xc8,%ebx
 804ce2c:	0f 84 cf fb ff ff    	je     804ca01 <main+0x2de1>
 804ce32:	e9 e0 fa ff ff       	jmp    804c917 <main+0x2cf7>
 804ce37:	89 f6                	mov    %esi,%esi
 804ce39:	8d bc 27 00 00 00 00 	lea    0x0(%edi,%eiz,1),%edi
 804ce40:	8b 85 58 fd ff ff    	mov    -0x2a8(%ebp),%eax
 804ce46:	89 34 b8             	mov    %esi,(%eax,%edi,4)
 804ce49:	83 c7 01             	add    $0x1,%edi
 804ce4c:	89 1c 24             	mov    %ebx,(%esp)
 804ce4f:	e8 70 cb ff ff       	call   80499c4 <strlen@plt>
 804ce54:	e9 47 fe ff ff       	jmp    804cca0 <main+0x3080>
 804ce59:	a1 40 8e 05 08       	mov    0x8058e40,%eax
 804ce5e:	c7 44 24 08 c4 4d 05 	movl   $0x8054dc4,0x8(%esp)
 804ce65:	08 
 804ce66:	c7 44 24 04 cf 4d 05 	movl   $0x8054dcf,0x4(%esp)
 804ce6d:	08 
 804ce6e:	89 04 24             	mov    %eax,(%esp)
 804ce71:	e8 4a 06 00 00       	call   804d4c0 <main+0x38a0>
 804ce76:	89 04 24             	mov    %eax,(%esp)
 804ce79:	89 c3                	mov    %eax,%ebx
 804ce7b:	e8 44 cb ff ff       	call   80499c4 <strlen@plt>
 804ce80:	8d 34 30             	lea    (%eax,%esi,1),%esi
 804ce83:	e9 6e ff ff ff       	jmp    804cdf6 <main+0x31d6>
 804ce88:	90                   	nop
 804ce89:	8d b4 26 00 00 00 00 	lea    0x0(%esi,%eiz,1),%esi
 804ce90:	83 c6 01             	add    $0x1,%esi
 804ce93:	89 34 24             	mov    %esi,(%esp)
 804ce96:	e8 19 c7 ff ff       	call   80495b4 <malloc@plt>
 804ce9b:	85 c0                	test   %eax,%eax
 804ce9d:	89 c6                	mov    %eax,%esi
 804ce9f:	89 c7                	mov    %eax,%edi
 804cea1:	0f 84 b3 00 00 00    	je     804cf5a <main+0x333a>
 804cea7:	85 db                	test   %ebx,%ebx
 804cea9:	0f 84 a1 00 00 00    	je     804cf50 <main+0x3330>
 804ceaf:	8b 85 48 fd ff ff    	mov    -0x2b8(%ebp),%eax
 804ceb5:	89 5c 24 10          	mov    %ebx,0x10(%esp)
 804ceb9:	c7 44 24 04 d5 4d 05 	movl   $0x8054dd5,0x4(%esp)
 804cec0:	08 
 804cec1:	89 3c 24             	mov    %edi,(%esp)
 804cec4:	89 44 24 0c          	mov    %eax,0xc(%esp)
 804cec8:	8b 85 5c fc ff ff    	mov    -0x3a4(%ebp),%eax
 804cece:	89 44 24 08          	mov    %eax,0x8(%esp)
 804ced2:	e8 2d ca ff ff       	call   8049904 <sprintf@plt>
 804ced7:	89 f8                	mov    %edi,%eax
 804ced9:	e8 12 ed ff ff       	call   804bbf0 <main+0x1fd0>
 804cede:	85 c0                	test   %eax,%eax
 804cee0:	89 c3                	mov    %eax,%ebx
 804cee2:	74 25                	je     804cf09 <main+0x32e9>
 804cee4:	8b 85 5c fc ff ff    	mov    -0x3a4(%ebp),%eax
 804ceea:	89 04 24             	mov    %eax,(%esp)
 804ceed:	e8 d2 ca ff ff       	call   80499c4 <strlen@plt>
 804cef2:	89 5c 24 04          	mov    %ebx,0x4(%esp)
 804cef6:	89 3c 24             	mov    %edi,(%esp)
 804cef9:	83 c0 01             	add    $0x1,%eax
 804cefc:	89 44 24 08          	mov    %eax,0x8(%esp)
 804cf00:	e8 3f c8 ff ff       	call   8049744 <strncmp@plt>
 804cf05:	85 c0                	test   %eax,%eax
 804cf07:	74 0f                	je     804cf18 <main+0x32f8>
 804cf09:	c7 85 3c fd ff ff 94 	movl   $0x194,-0x2c4(%ebp)
 804cf10:	01 00 00 
 804cf13:	e9 f8 fe ff ff       	jmp    804ce10 <main+0x31f0>
 804cf18:	8d 85 2c fb ff ff    	lea    -0x4d4(%ebp),%eax
 804cf1e:	89 44 24 04          	mov    %eax,0x4(%esp)
 804cf22:	89 1c 24             	mov    %ebx,(%esp)
 804cf25:	e8 1a ca ff ff       	call   8049944 <stat@plt>
 804cf2a:	83 f8 ff             	cmp    $0xffffffff,%eax
 804cf2d:	74 da                	je     804cf09 <main+0x32e9>
 804cf2f:	8b 85 58 fb ff ff    	mov    -0x4a8(%ebp),%eax
 804cf35:	25 00 f0 00 00       	and    $0xf000,%eax
 804cf3a:	3d 00 80 00 00       	cmp    $0x8000,%eax
 804cf3f:	74 2a                	je     804cf6b <main+0x334b>
 804cf41:	c7 85 3c fd ff ff 93 	movl   $0x193,-0x2c4(%ebp)
 804cf48:	01 00 00 
 804cf4b:	e9 c0 fe ff ff       	jmp    804ce10 <main+0x31f0>
 804cf50:	bb 89 4d 05 08       	mov    $0x8054d89,%ebx
 804cf55:	e9 55 ff ff ff       	jmp    804ceaf <main+0x328f>
 804cf5a:	c7 85 3c fd ff ff f4 	movl   $0x1f4,-0x2c4(%ebp)
 804cf61:	01 00 00 
 804cf64:	31 db                	xor    %ebx,%ebx
 804cf66:	e9 a5 fe ff ff       	jmp    804ce10 <main+0x31f0>
 804cf6b:	c7 44 24 04 04 00 00 	movl   $0x4,0x4(%esp)
 804cf72:	00 
 804cf73:	89 1c 24             	mov    %ebx,(%esp)
 804cf76:	e8 e9 c9 ff ff       	call   8049964 <access@plt>
 804cf7b:	85 c0                	test   %eax,%eax
 804cf7d:	75 c2                	jne    804cf41 <main+0x3321>
 804cf7f:	89 1c 24             	mov    %ebx,(%esp)
 804cf82:	e8 3d ca ff ff       	call   80499c4 <strlen@plt>
 804cf87:	83 f8 05             	cmp    $0x5,%eax
 804cf8a:	76 18                	jbe    804cfa4 <main+0x3384>
 804cf8c:	8d 44 03 fa          	lea    -0x6(%ebx,%eax,1),%eax
 804cf90:	c7 44 24 04 dd 4d 05 	movl   $0x8054ddd,0x4(%esp)
 804cf97:	08 
 804cf98:	89 04 24             	mov    %eax,(%esp)
 804cf9b:	e8 34 c9 ff ff       	call   80498d4 <strcmp@plt>
 804cfa0:	85 c0                	test   %eax,%eax
 804cfa2:	74 1e                	je     804cfc2 <main+0x33a2>
 804cfa4:	89 d9                	mov    %ebx,%ecx
 804cfa6:	ba c8 00 00 00       	mov    $0xc8,%edx
 804cfab:	8d 85 58 fc ff ff    	lea    -0x3a8(%ebp),%eax
 804cfb1:	c7 04 24 01 00 00 00 	movl   $0x1,(%esp)
 804cfb8:	e8 f3 f2 ff ff       	call   804c2b0 <main+0x2690>
 804cfbd:	e9 4e fe ff ff       	jmp    804ce10 <main+0x31f0>
 804cfc2:	c7 44 24 04 e4 4d 05 	movl   $0x8054de4,0x4(%esp)
 804cfc9:	08 
 804cfca:	89 1c 24             	mov    %ebx,(%esp)
 804cfcd:	e8 62 c8 ff ff       	call   8049834 <fopen@plt>
 804cfd2:	85 c0                	test   %eax,%eax
 804cfd4:	89 85 1c fb ff ff    	mov    %eax,-0x4e4(%ebp)
 804cfda:	0f 84 29 ff ff ff    	je     804cf09 <main+0x32e9>
 804cfe0:	8b bd 1c fb ff ff    	mov    -0x4e4(%ebp),%edi
 804cfe6:	89 3c 24             	mov    %edi,(%esp)
 804cfe9:	e8 22 28 00 00       	call   804f810 <main+0x5bf0>
 804cfee:	85 c0                	test   %eax,%eax
 804cff0:	89 85 20 fb ff ff    	mov    %eax,-0x4e0(%ebp)
 804cff6:	74 49                	je     804d041 <main+0x3421>
 804cff8:	8d 85 58 fc ff ff    	lea    -0x3a8(%ebp),%eax
 804cffe:	e8 7d f5 ff ff       	call   804c580 <main+0x2960>
 804d003:	8d 45 a0             	lea    -0x60(%ebp),%eax
 804d006:	89 5c 24 04          	mov    %ebx,0x4(%esp)
 804d00a:	89 04 24             	mov    %eax,(%esp)
 804d00d:	e8 3e 4b 00 00       	call   8051b50 <main+0x7f30>
 804d012:	85 c0                	test   %eax,%eax
 804d014:	75 37                	jne    804d04d <main+0x342d>
 804d016:	c7 85 3c fd ff ff f4 	movl   $0x1f4,-0x2c4(%ebp)
 804d01d:	01 00 00 
 804d020:	8b 95 20 fb ff ff    	mov    -0x4e0(%ebp),%edx
 804d026:	89 14 24             	mov    %edx,(%esp)
 804d029:	e8 f2 35 00 00       	call   8050620 <main+0x6a00>
 804d02e:	8b 95 1c fb ff ff    	mov    -0x4e4(%ebp),%edx
 804d034:	89 14 24             	mov    %edx,(%esp)
 804d037:	e8 48 c8 ff ff       	call   8049884 <fclose@plt>
 804d03c:	e9 cf fd ff ff       	jmp    804ce10 <main+0x31f0>
 804d041:	c7 85 3c fd ff ff f4 	movl   $0x1f4,-0x2c4(%ebp)
 804d048:	01 00 00 
 804d04b:	eb e1                	jmp    804d02e <main+0x340e>
 804d04d:	8d 95 58 fc ff ff    	lea    -0x3a8(%ebp),%edx
 804d053:	8d 7d a0             	lea    -0x60(%ebp),%edi
 804d056:	89 54 24 0c          	mov    %edx,0xc(%esp)
 804d05a:	c7 44 24 08 60 c2 04 	movl   $0x804c260,0x8(%esp)
 804d061:	08 
 804d062:	c7 44 24 04 e7 4d 05 	movl   $0x8054de7,0x4(%esp)
 804d069:	08 
 804d06a:	89 3c 24             	mov    %edi,(%esp)
 804d06d:	e8 8e 49 00 00       	call   8051a00 <main+0x7de0>
 804d072:	85 c0                	test   %eax,%eax
 804d074:	75 17                	jne    804d08d <main+0x346d>
 804d076:	c7 85 3c fd ff ff f4 	movl   $0x1f4,-0x2c4(%ebp)
 804d07d:	01 00 00 
 804d080:	8d 45 a0             	lea    -0x60(%ebp),%eax
 804d083:	89 04 24             	mov    %eax,(%esp)
 804d086:	e8 75 4a 00 00       	call   8051b00 <main+0x7ee0>
 804d08b:	eb 93                	jmp    804d020 <main+0x3400>
 804d08d:	8d 85 58 fc ff ff    	lea    -0x3a8(%ebp),%eax
 804d093:	8d 55 a0             	lea    -0x60(%ebp),%edx
 804d096:	89 44 24 0c          	mov    %eax,0xc(%esp)
 804d09a:	c7 44 24 08 e0 c1 04 	movl   $0x804c1e0,0x8(%esp)
 804d0a1:	08 
 804d0a2:	c7 44 24 04 ee 4d 05 	movl   $0x8054dee,0x4(%esp)
 804d0a9:	08 
 804d0aa:	89 14 24             	mov    %edx,(%esp)
 804d0ad:	e8 4e 49 00 00       	call   8051a00 <main+0x7de0>
 804d0b2:	85 c0                	test   %eax,%eax
 804d0b4:	74 c0                	je     804d076 <main+0x3456>
 804d0b6:	8d 45 a0             	lea    -0x60(%ebp),%eax
 804d0b9:	8d bd 58 fc ff ff    	lea    -0x3a8(%ebp),%edi
 804d0bf:	89 7c 24 0c          	mov    %edi,0xc(%esp)
 804d0c3:	c7 44 24 08 c0 bf 04 	movl   $0x804bfc0,0x8(%esp)
 804d0ca:	08 
 804d0cb:	c7 44 24 04 f3 4d 05 	movl   $0x8054df3,0x4(%esp)
 804d0d2:	08 
 804d0d3:	89 04 24             	mov    %eax,(%esp)
 804d0d6:	e8 25 49 00 00       	call   8051a00 <main+0x7de0>
 804d0db:	85 c0                	test   %eax,%eax
 804d0dd:	74 97                	je     804d076 <main+0x3456>
 804d0df:	8d 95 58 fc ff ff    	lea    -0x3a8(%ebp),%edx
 804d0e5:	8d 7d a0             	lea    -0x60(%ebp),%edi
 804d0e8:	89 54 24 0c          	mov    %edx,0xc(%esp)
 804d0ec:	c7 44 24 08 c0 bd 04 	movl   $0x804bdc0,0x8(%esp)
 804d0f3:	08 
 804d0f4:	c7 44 24 04 fc 4d 05 	movl   $0x8054dfc,0x4(%esp)
 804d0fb:	08 
 804d0fc:	89 3c 24             	mov    %edi,(%esp)
 804d0ff:	e8 fc 48 00 00       	call   8051a00 <main+0x7de0>
 804d104:	85 c0                	test   %eax,%eax
 804d106:	0f 84 6a ff ff ff    	je     804d076 <main+0x3456>
 804d10c:	8d 85 58 fc ff ff    	lea    -0x3a8(%ebp),%eax
 804d112:	8d 55 a0             	lea    -0x60(%ebp),%edx
 804d115:	89 44 24 0c          	mov    %eax,0xc(%esp)
 804d119:	c7 44 24 08 10 c0 04 	movl   $0x804c010,0x8(%esp)
 804d120:	08 
 804d121:	c7 44 24 04 13 4e 05 	movl   $0x8054e13,0x4(%esp)
 804d128:	08 
 804d129:	89 14 24             	mov    %edx,(%esp)
 804d12c:	e8 cf 48 00 00       	call   8051a00 <main+0x7de0>
 804d131:	85 c0                	test   %eax,%eax
 804d133:	0f 84 3d ff ff ff    	je     804d076 <main+0x3456>
 804d139:	8d 45 a0             	lea    -0x60(%ebp),%eax
 804d13c:	8d bd 58 fc ff ff    	lea    -0x3a8(%ebp),%edi
 804d142:	89 7c 24 0c          	mov    %edi,0xc(%esp)
 804d146:	c7 44 24 08 50 c4 04 	movl   $0x804c450,0x8(%esp)
 804d14d:	08 
 804d14e:	c7 44 24 04 1f 4e 05 	movl   $0x8054e1f,0x4(%esp)
 804d155:	08 
 804d156:	89 04 24             	mov    %eax,(%esp)
 804d159:	e8 a2 48 00 00       	call   8051a00 <main+0x7de0>
 804d15e:	85 c0                	test   %eax,%eax
 804d160:	0f 84 10 ff ff ff    	je     804d076 <main+0x3456>
 804d166:	8d 95 58 fc ff ff    	lea    -0x3a8(%ebp),%edx
 804d16c:	8d 7d a0             	lea    -0x60(%ebp),%edi
 804d16f:	89 54 24 0c          	mov    %edx,0xc(%esp)
 804d173:	c7 44 24 08 50 bd 04 	movl   $0x804bd50,0x8(%esp)
 804d17a:	08 
 804d17b:	c7 44 24 04 29 4e 05 	movl   $0x8054e29,0x4(%esp)
 804d182:	08 
 804d183:	89 3c 24             	mov    %edi,(%esp)
 804d186:	e8 75 48 00 00       	call   8051a00 <main+0x7de0>
 804d18b:	c7 85 24 fb ff ff 00 	movl   $0x0,-0x4dc(%ebp)
 804d192:	00 00 00 
 804d195:	85 c0                	test   %eax,%eax
 804d197:	0f 84 d9 fe ff ff    	je     804d076 <main+0x3456>
 804d19d:	89 9d 18 fb ff ff    	mov    %ebx,-0x4e8(%ebp)
 804d1a3:	8b 85 58 fd ff ff    	mov    -0x2a8(%ebp),%eax
 804d1a9:	8b bd 24 fb ff ff    	mov    -0x4dc(%ebp),%edi
 804d1af:	8b 1c 38             	mov    (%eax,%edi,1),%ebx
 804d1b2:	85 db                	test   %ebx,%ebx
 804d1b4:	0f 84 8a 00 00 00    	je     804d244 <main+0x3624>
 804d1ba:	8b 85 54 fd ff ff    	mov    -0x2ac(%ebp),%eax
 804d1c0:	89 5c 24 04          	mov    %ebx,0x4(%esp)
 804d1c4:	89 04 24             	mov    %eax,(%esp)
 804d1c7:	e8 54 06 00 00       	call   804d820 <main+0x3c00>
 804d1cc:	85 c0                	test   %eax,%eax
 804d1ce:	89 85 14 fb ff ff    	mov    %eax,-0x4ec(%ebp)
 804d1d4:	0f 84 ce 02 00 00    	je     804d4a8 <main+0x3888>
 804d1da:	31 c0                	xor    %eax,%eax
 804d1dc:	83 c9 ff             	or     $0xffffffff,%ecx
 804d1df:	89 df                	mov    %ebx,%edi
 804d1e1:	f2 ae                	repnz scas %es:(%edi),%al
 804d1e3:	f7 d1                	not    %ecx
 804d1e5:	83 c1 05             	add    $0x5,%ecx
 804d1e8:	89 0c 24             	mov    %ecx,(%esp)
 804d1eb:	e8 c4 c3 ff ff       	call   80495b4 <malloc@plt>
 804d1f0:	85 c0                	test   %eax,%eax
 804d1f2:	89 c7                	mov    %eax,%edi
 804d1f4:	0f 84 ba 02 00 00    	je     804d4b4 <main+0x3894>
 804d1fa:	c7 00 48 54 54 50    	movl   $0x50545448,(%eax)
 804d200:	66 c7 40 04 5f 00    	movw   $0x5f,0x4(%eax)
 804d206:	31 c0                	xor    %eax,%eax
 804d208:	0f b6 14 03          	movzbl (%ebx,%eax,1),%edx
 804d20c:	84 d2                	test   %dl,%dl
 804d20e:	0f 84 6a 02 00 00    	je     804d47e <main+0x385e>
 804d214:	8b 0d fc 78 05 08    	mov    0x80578fc,%ecx
 804d21a:	0f be d2             	movsbl %dl,%edx
 804d21d:	0f bf 0c 51          	movswl (%ecx,%edx,2),%ecx
 804d221:	81 e1 32 02 00 00    	and    $0x232,%ecx
 804d227:	0f 85 42 02 00 00    	jne    804d46f <main+0x384f>
 804d22d:	83 fa 5f             	cmp    $0x5f,%edx
 804d230:	b9 5f 00 00 00       	mov    $0x5f,%ecx
 804d235:	0f 84 34 02 00 00    	je     804d46f <main+0x384f>
 804d23b:	88 4c 07 05          	mov    %cl,0x5(%edi,%eax,1)
 804d23f:	83 c0 01             	add    $0x1,%eax
 804d242:	eb c4                	jmp    804d208 <main+0x35e8>
 804d244:	8b 85 48 fd ff ff    	mov    -0x2b8(%ebp),%eax
 804d24a:	8b 9d 18 fb ff ff    	mov    -0x4e8(%ebp),%ebx
 804d250:	c7 44 24 04 32 4e 05 	movl   $0x8054e32,0x4(%esp)
 804d257:	08 
 804d258:	89 44 24 08          	mov    %eax,0x8(%esp)
 804d25c:	8d 45 a0             	lea    -0x60(%ebp),%eax
 804d25f:	89 04 24             	mov    %eax,(%esp)
 804d262:	e8 09 47 00 00       	call   8051970 <main+0x7d50>
 804d267:	85 c0                	test   %eax,%eax
 804d269:	0f 84 07 fe ff ff    	je     804d076 <main+0x3456>
 804d26f:	8b 85 4c fd ff ff    	mov    -0x2b4(%ebp),%eax
 804d275:	85 c0                	test   %eax,%eax
 804d277:	74 1f                	je     804d298 <main+0x3678>
 804d279:	8d 55 a0             	lea    -0x60(%ebp),%edx
 804d27c:	89 44 24 08          	mov    %eax,0x8(%esp)
 804d280:	c7 44 24 04 3e 4e 05 	movl   $0x8054e3e,0x4(%esp)
 804d287:	08 
 804d288:	89 14 24             	mov    %edx,(%esp)
 804d28b:	e8 e0 46 00 00       	call   8051970 <main+0x7d50>
 804d290:	85 c0                	test   %eax,%eax
 804d292:	0f 84 de fd ff ff    	je     804d076 <main+0x3456>
 804d298:	8b 85 44 fd ff ff    	mov    -0x2bc(%ebp),%eax
 804d29e:	8d 7d a0             	lea    -0x60(%ebp),%edi
 804d2a1:	c7 44 24 04 4b 4e 05 	movl   $0x8054e4b,0x4(%esp)
 804d2a8:	08 
 804d2a9:	89 3c 24             	mov    %edi,(%esp)
 804d2ac:	89 44 24 08          	mov    %eax,0x8(%esp)
 804d2b0:	e8 bb 46 00 00       	call   8051970 <main+0x7d50>
 804d2b5:	85 c0                	test   %eax,%eax
 804d2b7:	0f 84 b9 fd ff ff    	je     804d076 <main+0x3456>
 804d2bd:	8b 85 50 fd ff ff    	mov    -0x2b0(%ebp),%eax
 804d2c3:	c7 44 24 04 52 4e 05 	movl   $0x8054e52,0x4(%esp)
 804d2ca:	08 
 804d2cb:	89 3c 24             	mov    %edi,(%esp)
 804d2ce:	89 44 24 08          	mov    %eax,0x8(%esp)
 804d2d2:	e8 99 46 00 00       	call   8051970 <main+0x7d50>
 804d2d7:	85 c0                	test   %eax,%eax
 804d2d9:	0f 84 97 fd ff ff    	je     804d076 <main+0x3456>
 804d2df:	8d 95 58 ff ff ff    	lea    -0xa8(%ebp),%edx
 804d2e5:	8d bd 1c fd ff ff    	lea    -0x2e4(%ebp),%edi
 804d2eb:	89 54 24 08          	mov    %edx,0x8(%esp)
 804d2ef:	c7 44 24 0c 2e 00 00 	movl   $0x2e,0xc(%esp)
 804d2f6:	00 
 804d2f7:	89 7c 24 04          	mov    %edi,0x4(%esp)
 804d2fb:	c7 04 24 18 00 00 00 	movl   $0x18,(%esp)
 804d302:	e8 7d c6 ff ff       	call   8049984 <inet_ntop@plt>
 804d307:	c7 44 24 04 5a 4e 05 	movl   $0x8054e5a,0x4(%esp)
 804d30e:	08 
 804d30f:	89 44 24 08          	mov    %eax,0x8(%esp)
 804d313:	8d 45 a0             	lea    -0x60(%ebp),%eax
 804d316:	89 04 24             	mov    %eax,(%esp)
 804d319:	e8 52 46 00 00       	call   8051970 <main+0x7d50>
 804d31e:	85 c0                	test   %eax,%eax
 804d320:	0f 84 50 fd ff ff    	je     804d076 <main+0x3456>
 804d326:	8b 85 40 fd ff ff    	mov    -0x2c0(%ebp),%eax
 804d32c:	8d 55 a0             	lea    -0x60(%ebp),%edx
 804d32f:	c7 44 24 04 64 4e 05 	movl   $0x8054e64,0x4(%esp)
 804d336:	08 
 804d337:	89 14 24             	mov    %edx,(%esp)
 804d33a:	89 44 24 08          	mov    %eax,0x8(%esp)
 804d33e:	e8 ad 45 00 00       	call   80518f0 <main+0x7cd0>
 804d343:	85 c0                	test   %eax,%eax
 804d345:	0f 84 2b fd ff ff    	je     804d076 <main+0x3456>
 804d34b:	83 bd 34 fd ff ff ff 	cmpl   $0xffffffff,-0x2cc(%ebp)
 804d352:	74 47                	je     804d39b <main+0x377b>
 804d354:	8b 85 38 fd ff ff    	mov    -0x2c8(%ebp),%eax
 804d35a:	8d 7d a0             	lea    -0x60(%ebp),%edi
 804d35d:	c7 44 24 04 6a 4e 05 	movl   $0x8054e6a,0x4(%esp)
 804d364:	08 
 804d365:	89 3c 24             	mov    %edi,(%esp)
 804d368:	89 44 24 08          	mov    %eax,0x8(%esp)
 804d36c:	e8 7f 45 00 00       	call   80518f0 <main+0x7cd0>
 804d371:	85 c0                	test   %eax,%eax
 804d373:	0f 84 fd fc ff ff    	je     804d076 <main+0x3456>
 804d379:	8b 85 30 fd ff ff    	mov    -0x2d0(%ebp),%eax
 804d37f:	c7 44 24 04 76 4e 05 	movl   $0x8054e76,0x4(%esp)
 804d386:	08 
 804d387:	89 3c 24             	mov    %edi,(%esp)
 804d38a:	89 44 24 08          	mov    %eax,0x8(%esp)
 804d38e:	e8 dd 45 00 00       	call   8051970 <main+0x7d50>
 804d393:	85 c0                	test   %eax,%eax
 804d395:	0f 84 db fc ff ff    	je     804d076 <main+0x3456>
 804d39b:	8b bd 20 fb ff ff    	mov    -0x4e0(%ebp),%edi
 804d3a1:	8d 45 a0             	lea    -0x60(%ebp),%eax
 804d3a4:	89 04 24             	mov    %eax,(%esp)
 804d3a7:	89 7c 24 04          	mov    %edi,0x4(%esp)
 804d3ab:	e8 40 58 00 00       	call   8052bf0 <main+0x8fd0>
 804d3b0:	83 f8 01             	cmp    $0x1,%eax
 804d3b3:	0f 84 c7 fc ff ff    	je     804d080 <main+0x3460>
 804d3b9:	8b 85 5c fd ff ff    	mov    -0x2a4(%ebp),%eax
 804d3bf:	85 c0                	test   %eax,%eax
 804d3c1:	74 68                	je     804d42b <main+0x380b>
 804d3c3:	c7 44 24 04 e4 4d 05 	movl   $0x8054de4,0x4(%esp)
 804d3ca:	08 
 804d3cb:	89 04 24             	mov    %eax,(%esp)
 804d3ce:	e8 61 c4 ff ff       	call   8049834 <fopen@plt>
 804d3d3:	85 c0                	test   %eax,%eax
 804d3d5:	74 54                	je     804d42b <main+0x380b>
 804d3d7:	89 04 24             	mov    %eax,(%esp)
 804d3da:	89 85 10 fb ff ff    	mov    %eax,-0x4f0(%ebp)
 804d3e0:	e8 2b 24 00 00       	call   804f810 <main+0x5bf0>
 804d3e5:	8b 95 10 fb ff ff    	mov    -0x4f0(%ebp),%edx
 804d3eb:	85 c0                	test   %eax,%eax
 804d3ed:	89 c7                	mov    %eax,%edi
 804d3ef:	74 74                	je     804d465 <main+0x3845>
 804d3f1:	8d 55 a0             	lea    -0x60(%ebp),%edx
 804d3f4:	89 14 24             	mov    %edx,(%esp)
 804d3f7:	c7 45 b0 ff ff ff ff 	movl   $0xffffffff,-0x50(%ebp)
 804d3fe:	c7 45 b4 ff ff ff ff 	movl   $0xffffffff,-0x4c(%ebp)
 804d405:	89 44 24 04          	mov    %eax,0x4(%esp)
 804d409:	e8 e2 57 00 00       	call   8052bf0 <main+0x8fd0>
 804d40e:	89 3c 24             	mov    %edi,(%esp)
 804d411:	89 85 10 fb ff ff    	mov    %eax,-0x4f0(%ebp)
 804d417:	e8 04 32 00 00       	call   8050620 <main+0x6a00>
 804d41c:	8b 85 10 fb ff ff    	mov    -0x4f0(%ebp),%eax
 804d422:	83 f8 01             	cmp    $0x1,%eax
 804d425:	0f 84 55 fc ff ff    	je     804d080 <main+0x3460>
 804d42b:	8d 85 58 fc ff ff    	lea    -0x3a8(%ebp),%eax
 804d431:	e8 da f0 ff ff       	call   804c510 <main+0x28f0>
 804d436:	83 bd 40 fd ff ff 00 	cmpl   $0x0,-0x2c0(%ebp)
 804d43d:	0f 84 3d fc ff ff    	je     804d080 <main+0x3460>
 804d443:	8b 45 a8             	mov    -0x58(%ebp),%eax
 804d446:	8d bd 58 fc ff ff    	lea    -0x3a8(%ebp),%edi
 804d44c:	89 7c 24 08          	mov    %edi,0x8(%esp)
 804d450:	c7 44 24 04 d0 be 04 	movl   $0x804bed0,0x4(%esp)
 804d457:	08 
 804d458:	89 04 24             	mov    %eax,(%esp)
 804d45b:	e8 50 03 00 00       	call   804d7b0 <main+0x3b90>
 804d460:	e9 1b fc ff ff       	jmp    804d080 <main+0x3460>
 804d465:	89 14 24             	mov    %edx,(%esp)
 804d468:	e8 17 c4 ff ff       	call   8049884 <fclose@plt>
 804d46d:	eb bc                	jmp    804d42b <main+0x380b>
 804d46f:	8b 0d 00 79 05 08    	mov    0x8057900,%ecx
 804d475:	0f b6 0c 51          	movzbl (%ecx,%edx,2),%ecx
 804d479:	e9 bd fd ff ff       	jmp    804d23b <main+0x361b>
 804d47e:	c6 44 07 05 00       	movb   $0x0,0x5(%edi,%eax,1)
 804d483:	8b 85 14 fb ff ff    	mov    -0x4ec(%ebp),%eax
 804d489:	8d 55 a0             	lea    -0x60(%ebp),%edx
 804d48c:	89 7c 24 04          	mov    %edi,0x4(%esp)
 804d490:	89 14 24             	mov    %edx,(%esp)
 804d493:	89 44 24 08          	mov    %eax,0x8(%esp)
 804d497:	e8 d4 44 00 00       	call   8051970 <main+0x7d50>
 804d49c:	85 c0                	test   %eax,%eax
 804d49e:	74 14                	je     804d4b4 <main+0x3894>
 804d4a0:	89 3c 24             	mov    %edi,(%esp)
 804d4a3:	e8 ac c5 ff ff       	call   8049a54 <free@plt>
 804d4a8:	83 85 24 fb ff ff 04 	addl   $0x4,-0x4dc(%ebp)
 804d4af:	e9 ef fc ff ff       	jmp    804d1a3 <main+0x3583>
 804d4b4:	8b 9d 18 fb ff ff    	mov    -0x4e8(%ebp),%ebx
 804d4ba:	e9 b7 fb ff ff       	jmp    804d076 <main+0x3456>
 804d4bf:	90                   	nop
 804d4c0:	55                   	push   %ebp
 804d4c1:	89 e5                	mov    %esp,%ebp
 804d4c3:	83 ec 18             	sub    $0x18,%esp
 804d4c6:	8b 45 0c             	mov    0xc(%ebp),%eax
 804d4c9:	89 44 24 04          	mov    %eax,0x4(%esp)
 804d4cd:	8b 45 08             	mov    0x8(%ebp),%eax
 804d4d0:	8b 00                	mov    (%eax),%eax
 804d4d2:	89 04 24             	mov    %eax,(%esp)
 804d4d5:	e8 46 03 00 00       	call   804d820 <main+0x3c00>
 804d4da:	85 c0                	test   %eax,%eax
 804d4dc:	74 02                	je     804d4e0 <main+0x38c0>
 804d4de:	c9                   	leave  
 804d4df:	c3                   	ret    
 804d4e0:	8b 45 10             	mov    0x10(%ebp),%eax
 804d4e3:	c9                   	leave  
 804d4e4:	c3                   	ret    
 804d4e5:	8d 74 26 00          	lea    0x0(%esi,%eiz,1),%esi
 804d4e9:	8d bc 27 00 00 00 00 	lea    0x0(%edi,%eiz,1),%edi
 804d4f0:	55                   	push   %ebp
 804d4f1:	89 e5                	mov    %esp,%ebp
 804d4f3:	53                   	push   %ebx
 804d4f4:	83 ec 24             	sub    $0x24,%esp
 804d4f7:	8b 45 0c             	mov    0xc(%ebp),%eax
 804d4fa:	8b 5d 10             	mov    0x10(%ebp),%ebx
 804d4fd:	89 44 24 04          	mov    %eax,0x4(%esp)
 804d501:	8b 45 08             	mov    0x8(%ebp),%eax
 804d504:	8b 00                	mov    (%eax),%eax
 804d506:	89 04 24             	mov    %eax,(%esp)
 804d509:	e8 12 03 00 00       	call   804d820 <main+0x3c00>
 804d50e:	85 c0                	test   %eax,%eax
 804d510:	74 1c                	je     804d52e <main+0x390e>
 804d512:	8d 55 f4             	lea    -0xc(%ebp),%edx
 804d515:	89 54 24 08          	mov    %edx,0x8(%esp)
 804d519:	c7 44 24 04 0b 4c 05 	movl   $0x8054c0b,0x4(%esp)
 804d520:	08 
 804d521:	89 04 24             	mov    %eax,(%esp)
 804d524:	e8 ab c2 ff ff       	call   80497d4 <sscanf@plt>
 804d529:	83 f8 01             	cmp    $0x1,%eax
 804d52c:	74 12                	je     804d540 <main+0x3920>
 804d52e:	89 d8                	mov    %ebx,%eax
 804d530:	83 c4 24             	add    $0x24,%esp
 804d533:	5b                   	pop    %ebx
 804d534:	5d                   	pop    %ebp
 804d535:	c3                   	ret    
 804d536:	8d 76 00             	lea    0x0(%esi),%esi
 804d539:	8d bc 27 00 00 00 00 	lea    0x0(%edi,%eiz,1),%edi
 804d540:	8b 5d f4             	mov    -0xc(%ebp),%ebx
 804d543:	83 c4 24             	add    $0x24,%esp
 804d546:	89 d8                	mov    %ebx,%eax
 804d548:	5b                   	pop    %ebx
 804d549:	5d                   	pop    %ebp
 804d54a:	c3                   	ret    
 804d54b:	90                   	nop
 804d54c:	8d 74 26 00          	lea    0x0(%esi,%eiz,1),%esi
 804d550:	55                   	push   %ebp
 804d551:	89 e5                	mov    %esp,%ebp
 804d553:	53                   	push   %ebx
 804d554:	83 ec 14             	sub    $0x14,%esp
 804d557:	8b 5d 08             	mov    0x8(%ebp),%ebx
 804d55a:	8b 03                	mov    (%ebx),%eax
 804d55c:	89 04 24             	mov    %eax,(%esp)
 804d55f:	e8 2c 05 00 00       	call   804da90 <main+0x3e70>
 804d564:	89 5d 08             	mov    %ebx,0x8(%ebp)
 804d567:	83 c4 14             	add    $0x14,%esp
 804d56a:	5b                   	pop    %ebx
 804d56b:	5d                   	pop    %ebp
 804d56c:	e9 e3 c4 ff ff       	jmp    8049a54 <free@plt>
 804d571:	eb 0d                	jmp    804d580 <main+0x3960>
 804d573:	90                   	nop
 804d574:	90                   	nop
 804d575:	90                   	nop
 804d576:	90                   	nop
 804d577:	90                   	nop
 804d578:	90                   	nop
 804d579:	90                   	nop
 804d57a:	90                   	nop
 804d57b:	90                   	nop
 804d57c:	90                   	nop
 804d57d:	90                   	nop
 804d57e:	90                   	nop
 804d57f:	90                   	nop
 804d580:	55                   	push   %ebp
 804d581:	89 e5                	mov    %esp,%ebp
 804d583:	53                   	push   %ebx
 804d584:	83 ec 14             	sub    $0x14,%esp
 804d587:	8b 5d 0c             	mov    0xc(%ebp),%ebx
 804d58a:	8b 45 08             	mov    0x8(%ebp),%eax
 804d58d:	89 04 24             	mov    %eax,(%esp)
 804d590:	e8 bf c4 ff ff       	call   8049a54 <free@plt>
 804d595:	89 5d 08             	mov    %ebx,0x8(%ebp)
 804d598:	83 c4 14             	add    $0x14,%esp
 804d59b:	5b                   	pop    %ebx
 804d59c:	5d                   	pop    %ebp
 804d59d:	e9 b2 c4 ff ff       	jmp    8049a54 <free@plt>
 804d5a2:	8d b4 26 00 00 00 00 	lea    0x0(%esi,%eiz,1),%esi
 804d5a9:	8d bc 27 00 00 00 00 	lea    0x0(%edi,%eiz,1),%edi
 804d5b0:	55                   	push   %ebp
 804d5b1:	89 e5                	mov    %esp,%ebp
 804d5b3:	57                   	push   %edi
 804d5b4:	56                   	push   %esi
 804d5b5:	53                   	push   %ebx
 804d5b6:	81 ec 3c 04 00 00    	sub    $0x43c,%esp
 804d5bc:	c7 44 24 04 04 00 00 	movl   $0x4,0x4(%esp)
 804d5c3:	00 
 804d5c4:	c7 04 24 01 00 00 00 	movl   $0x1,(%esp)
 804d5cb:	e8 94 c0 ff ff       	call   8049664 <calloc@plt>
 804d5d0:	85 c0                	test   %eax,%eax
 804d5d2:	89 85 d4 fb ff ff    	mov    %eax,-0x42c(%ebp)
 804d5d8:	89 85 d0 fb ff ff    	mov    %eax,-0x430(%ebp)
 804d5de:	75 20                	jne    804d600 <main+0x39e0>
 804d5e0:	8b 85 d0 fb ff ff    	mov    -0x430(%ebp),%eax
 804d5e6:	81 c4 3c 04 00 00    	add    $0x43c,%esp
 804d5ec:	5b                   	pop    %ebx
 804d5ed:	5e                   	pop    %esi
 804d5ee:	5f                   	pop    %edi
 804d5ef:	5d                   	pop    %ebp
 804d5f0:	c3                   	ret    
 804d5f1:	eb 0d                	jmp    804d600 <main+0x39e0>
 804d5f3:	90                   	nop
 804d5f4:	90                   	nop
 804d5f5:	90                   	nop
 804d5f6:	90                   	nop
 804d5f7:	90                   	nop
 804d5f8:	90                   	nop
 804d5f9:	90                   	nop
 804d5fa:	90                   	nop
 804d5fb:	90                   	nop
 804d5fc:	90                   	nop
 804d5fd:	90                   	nop
 804d5fe:	90                   	nop
 804d5ff:	90                   	nop
 804d600:	c7 44 24 0c 80 d5 04 	movl   $0x804d580,0xc(%esp)
 804d607:	08 
 804d608:	c7 44 24 08 20 d9 04 	movl   $0x804d920,0x8(%esp)
 804d60f:	08 
 804d610:	c7 44 24 04 90 d8 04 	movl   $0x804d890,0x4(%esp)
 804d617:	08 
 804d618:	c7 04 24 20 00 00 00 	movl   $0x20,(%esp)
 804d61f:	e8 dc 03 00 00       	call   804da00 <main+0x3de0>
 804d624:	8b 95 d4 fb ff ff    	mov    -0x42c(%ebp),%edx
 804d62a:	85 c0                	test   %eax,%eax
 804d62c:	89 02                	mov    %eax,(%edx)
 804d62e:	0f 84 95 00 00 00    	je     804d6c9 <main+0x3aa9>
 804d634:	8d b6 00 00 00 00    	lea    0x0(%esi),%esi
 804d63a:	8d bf 00 00 00 00    	lea    0x0(%edi),%edi
 804d640:	8b 45 08             	mov    0x8(%ebp),%eax
 804d643:	8d 95 e7 fb ff ff    	lea    -0x419(%ebp),%edx
 804d649:	c7 44 24 04 01 04 00 	movl   $0x401,0x4(%esp)
 804d650:	00 
 804d651:	89 14 24             	mov    %edx,(%esp)
 804d654:	89 44 24 08          	mov    %eax,0x8(%esp)
 804d658:	e8 07 bf ff ff       	call   8049564 <fgets@plt>
 804d65d:	85 c0                	test   %eax,%eax
 804d65f:	0f 84 7b ff ff ff    	je     804d5e0 <main+0x39c0>
 804d665:	8d 85 e7 fb ff ff    	lea    -0x419(%ebp),%eax
 804d66b:	c7 44 24 04 3d 00 00 	movl   $0x3d,0x4(%esp)
 804d672:	00 
 804d673:	89 04 24             	mov    %eax,(%esp)
 804d676:	e8 69 c3 ff ff       	call   80499e4 <strchr@plt>
 804d67b:	85 c0                	test   %eax,%eax
 804d67d:	74 4a                	je     804d6c9 <main+0x3aa9>
 804d67f:	c6 00 00             	movb   $0x0,(%eax)
 804d682:	0f b6 95 e7 fb ff ff 	movzbl -0x419(%ebp),%edx
 804d689:	84 d2                	test   %dl,%dl
 804d68b:	74 3c                	je     804d6c9 <main+0x3aa9>
 804d68d:	8b 3d fc 78 05 08    	mov    0x80578fc,%edi
 804d693:	0f be d2             	movsbl %dl,%edx
 804d696:	8d b5 e7 fb ff ff    	lea    -0x419(%ebp),%esi
 804d69c:	0f bf 14 57          	movswl (%edi,%edx,2),%edx
 804d6a0:	81 e2 44 01 00 00    	and    $0x144,%edx
 804d6a6:	75 17                	jne    804d6bf <main+0x3a9f>
 804d6a8:	eb 36                	jmp    804d6e0 <main+0x3ac0>
 804d6aa:	8d b6 00 00 00 00    	lea    0x0(%esi),%esi
 804d6b0:	0f be d2             	movsbl %dl,%edx
 804d6b3:	0f bf 14 57          	movswl (%edi,%edx,2),%edx
 804d6b7:	81 e2 44 01 00 00    	and    $0x144,%edx
 804d6bd:	74 21                	je     804d6e0 <main+0x3ac0>
 804d6bf:	83 c6 01             	add    $0x1,%esi
 804d6c2:	0f b6 16             	movzbl (%esi),%edx
 804d6c5:	84 d2                	test   %dl,%dl
 804d6c7:	75 e7                	jne    804d6b0 <main+0x3a90>
 804d6c9:	c7 85 d0 fb ff ff 00 	movl   $0x0,-0x430(%ebp)
 804d6d0:	00 00 00 
 804d6d3:	e9 08 ff ff ff       	jmp    804d5e0 <main+0x39c0>
 804d6d8:	90                   	nop
 804d6d9:	8d b4 26 00 00 00 00 	lea    0x0(%esi,%eiz,1),%esi
 804d6e0:	89 f2                	mov    %esi,%edx
 804d6e2:	eb 1b                	jmp    804d6ff <main+0x3adf>
 804d6e4:	8d b6 00 00 00 00    	lea    0x0(%esi),%esi
 804d6ea:	8d bf 00 00 00 00    	lea    0x0(%edi),%edi
 804d6f0:	0f be c9             	movsbl %cl,%ecx
 804d6f3:	0f bf 0c 4f          	movswl (%edi,%ecx,2),%ecx
 804d6f7:	81 e1 44 01 00 00    	and    $0x144,%ecx
 804d6fd:	75 0a                	jne    804d709 <main+0x3ae9>
 804d6ff:	83 c2 01             	add    $0x1,%edx
 804d702:	0f b6 0a             	movzbl (%edx),%ecx
 804d705:	84 c9                	test   %cl,%cl
 804d707:	75 e7                	jne    804d6f0 <main+0x3ad0>
 804d709:	39 f2                	cmp    %esi,%edx
 804d70b:	74 bc                	je     804d6c9 <main+0x3aa9>
 804d70d:	8d 58 01             	lea    0x1(%eax),%ebx
 804d710:	c6 02 00             	movb   $0x0,(%edx)
 804d713:	0f b6 40 01          	movzbl 0x1(%eax),%eax
 804d717:	84 c0                	test   %al,%al
 804d719:	75 0f                	jne    804d72a <main+0x3b0a>
 804d71b:	eb 1b                	jmp    804d738 <main+0x3b18>
 804d71d:	8d 76 00             	lea    0x0(%esi),%esi
 804d720:	83 c3 01             	add    $0x1,%ebx
 804d723:	0f b6 03             	movzbl (%ebx),%eax
 804d726:	84 c0                	test   %al,%al
 804d728:	74 0e                	je     804d738 <main+0x3b18>
 804d72a:	0f be c0             	movsbl %al,%eax
 804d72d:	0f bf 04 47          	movswl (%edi,%eax,2),%eax
 804d731:	a9 44 01 00 00       	test   $0x144,%eax
 804d736:	75 e8                	jne    804d720 <main+0x3b00>
 804d738:	89 1c 24             	mov    %ebx,(%esp)
 804d73b:	e8 84 c2 ff ff       	call   80499c4 <strlen@plt>
 804d740:	8d 04 03             	lea    (%ebx,%eax,1),%eax
 804d743:	39 d8                	cmp    %ebx,%eax
 804d745:	74 14                	je     804d75b <main+0x3b3b>
 804d747:	0f be 50 ff          	movsbl -0x1(%eax),%edx
 804d74b:	0f bf 14 57          	movswl (%edi,%edx,2),%edx
 804d74f:	81 e2 44 01 00 00    	and    $0x144,%edx
 804d755:	74 04                	je     804d75b <main+0x3b3b>
 804d757:	c6 40 ff 00          	movb   $0x0,-0x1(%eax)
 804d75b:	89 1c 24             	mov    %ebx,(%esp)
 804d75e:	e8 a1 c0 ff ff       	call   8049804 <strdup@plt>
 804d763:	89 34 24             	mov    %esi,(%esp)
 804d766:	89 c3                	mov    %eax,%ebx
 804d768:	e8 97 c0 ff ff       	call   8049804 <strdup@plt>
 804d76d:	8b 95 d4 fb ff ff    	mov    -0x42c(%ebp),%edx
 804d773:	c7 44 24 0c 01 00 00 	movl   $0x1,0xc(%esp)
 804d77a:	00 
 804d77b:	89 5c 24 08          	mov    %ebx,0x8(%esp)
 804d77f:	89 44 24 04          	mov    %eax,0x4(%esp)
 804d783:	8b 02                	mov    (%edx),%eax
 804d785:	89 04 24             	mov    %eax,(%esp)
 804d788:	e8 a3 01 00 00       	call   804d930 <main+0x3d10>
 804d78d:	85 c0                	test   %eax,%eax
 804d78f:	0f 85 ab fe ff ff    	jne    804d640 <main+0x3a20>
 804d795:	c7 85 d0 fb ff ff 00 	movl   $0x0,-0x430(%ebp)
 804d79c:	00 00 00 
 804d79f:	e9 3c fe ff ff       	jmp    804d5e0 <main+0x39c0>
 804d7a4:	90                   	nop
 804d7a5:	90                   	nop
 804d7a6:	90                   	nop
 804d7a7:	90                   	nop
 804d7a8:	90                   	nop
 804d7a9:	90                   	nop
 804d7aa:	90                   	nop
 804d7ab:	90                   	nop
 804d7ac:	90                   	nop
 804d7ad:	90                   	nop
 804d7ae:	90                   	nop
 804d7af:	90                   	nop
 804d7b0:	55                   	push   %ebp
 804d7b1:	89 e5                	mov    %esp,%ebp
 804d7b3:	57                   	push   %edi
 804d7b4:	56                   	push   %esi
 804d7b5:	53                   	push   %ebx
 804d7b6:	83 ec 2c             	sub    $0x2c,%esp
 804d7b9:	8b 45 08             	mov    0x8(%ebp),%eax
 804d7bc:	8b 75 0c             	mov    0xc(%ebp),%esi
 804d7bf:	8b 7d 10             	mov    0x10(%ebp),%edi
 804d7c2:	8b 40 04             	mov    0x4(%eax),%eax
 804d7c5:	85 c0                	test   %eax,%eax
 804d7c7:	74 41                	je     804d80a <main+0x3bea>
 804d7c9:	c7 45 e4 00 00 00 00 	movl   $0x0,-0x1c(%ebp)
 804d7d0:	8b 55 08             	mov    0x8(%ebp),%edx
 804d7d3:	8b 42 08             	mov    0x8(%edx),%eax
 804d7d6:	8b 55 e4             	mov    -0x1c(%ebp),%edx
 804d7d9:	8b 04 90             	mov    (%eax,%edx,4),%eax
 804d7dc:	85 c0                	test   %eax,%eax
 804d7de:	74 1b                	je     804d7fb <main+0x3bdb>
 804d7e0:	8b 18                	mov    (%eax),%ebx
 804d7e2:	89 7c 24 08          	mov    %edi,0x8(%esp)
 804d7e6:	8b 50 0c             	mov    0xc(%eax),%edx
 804d7e9:	89 54 24 04          	mov    %edx,0x4(%esp)
 804d7ed:	8b 40 08             	mov    0x8(%eax),%eax
 804d7f0:	89 04 24             	mov    %eax,(%esp)
 804d7f3:	ff d6                	call   *%esi
 804d7f5:	85 db                	test   %ebx,%ebx
 804d7f7:	89 d8                	mov    %ebx,%eax
 804d7f9:	75 e5                	jne    804d7e0 <main+0x3bc0>
 804d7fb:	8b 45 08             	mov    0x8(%ebp),%eax
 804d7fe:	83 45 e4 01          	addl   $0x1,-0x1c(%ebp)
 804d802:	8b 55 e4             	mov    -0x1c(%ebp),%edx
 804d805:	39 50 04             	cmp    %edx,0x4(%eax)
 804d808:	77 c6                	ja     804d7d0 <main+0x3bb0>
 804d80a:	83 c4 2c             	add    $0x2c,%esp
 804d80d:	5b                   	pop    %ebx
 804d80e:	5e                   	pop    %esi
 804d80f:	5f                   	pop    %edi
 804d810:	5d                   	pop    %ebp
 804d811:	c3                   	ret    
 804d812:	8d b4 26 00 00 00 00 	lea    0x0(%esi,%eiz,1),%esi
 804d819:	8d bc 27 00 00 00 00 	lea    0x0(%edi,%eiz,1),%edi
 804d820:	55                   	push   %ebp
 804d821:	89 e5                	mov    %esp,%ebp
 804d823:	57                   	push   %edi
 804d824:	56                   	push   %esi
 804d825:	53                   	push   %ebx
 804d826:	83 ec 1c             	sub    $0x1c,%esp
 804d829:	8b 5d 08             	mov    0x8(%ebp),%ebx
 804d82c:	8b 75 0c             	mov    0xc(%ebp),%esi
 804d82f:	89 34 24             	mov    %esi,(%esp)
 804d832:	ff 53 0c             	call   *0xc(%ebx)
 804d835:	31 d2                	xor    %edx,%edx
 804d837:	f7 73 04             	divl   0x4(%ebx)
 804d83a:	8b 43 08             	mov    0x8(%ebx),%eax
 804d83d:	8b 3c 90             	mov    (%eax,%edx,4),%edi
 804d840:	85 ff                	test   %edi,%edi
 804d842:	75 12                	jne    804d856 <main+0x3c36>
 804d844:	eb 3a                	jmp    804d880 <main+0x3c60>
 804d846:	8d 76 00             	lea    0x0(%esi),%esi
 804d849:	8d bc 27 00 00 00 00 	lea    0x0(%edi,%eiz,1),%edi
 804d850:	8b 3f                	mov    (%edi),%edi
 804d852:	85 ff                	test   %edi,%edi
 804d854:	74 2a                	je     804d880 <main+0x3c60>
 804d856:	89 74 24 04          	mov    %esi,0x4(%esp)
 804d85a:	8b 47 08             	mov    0x8(%edi),%eax
 804d85d:	89 04 24             	mov    %eax,(%esp)
 804d860:	ff 53 10             	call   *0x10(%ebx)
 804d863:	85 c0                	test   %eax,%eax
 804d865:	75 e9                	jne    804d850 <main+0x3c30>
 804d867:	8b 47 0c             	mov    0xc(%edi),%eax
 804d86a:	83 c4 1c             	add    $0x1c,%esp
 804d86d:	5b                   	pop    %ebx
 804d86e:	5e                   	pop    %esi
 804d86f:	5f                   	pop    %edi
 804d870:	5d                   	pop    %ebp
 804d871:	c3                   	ret    
 804d872:	8d b4 26 00 00 00 00 	lea    0x0(%esi,%eiz,1),%esi
 804d879:	8d bc 27 00 00 00 00 	lea    0x0(%edi,%eiz,1),%edi
 804d880:	83 c4 1c             	add    $0x1c,%esp
 804d883:	31 c0                	xor    %eax,%eax
 804d885:	5b                   	pop    %ebx
 804d886:	5e                   	pop    %esi
 804d887:	5f                   	pop    %edi
 804d888:	5d                   	pop    %ebp
 804d889:	c3                   	ret    
 804d88a:	8d b6 00 00 00 00    	lea    0x0(%esi),%esi
 804d890:	55                   	push   %ebp
 804d891:	b8 c5 9d 1c 81       	mov    $0x811c9dc5,%eax
 804d896:	89 e5                	mov    %esp,%ebp
 804d898:	8b 4d 08             	mov    0x8(%ebp),%ecx
 804d89b:	53                   	push   %ebx
 804d89c:	0f b6 11             	movzbl (%ecx),%edx
 804d89f:	84 d2                	test   %dl,%dl
 804d8a1:	74 22                	je     804d8c5 <main+0x3ca5>
 804d8a3:	8d b6 00 00 00 00    	lea    0x0(%esi),%esi
 804d8a9:	8d bc 27 00 00 00 00 	lea    0x0(%edi,%eiz,1),%edi
 804d8b0:	83 c1 01             	add    $0x1,%ecx
 804d8b3:	69 d8 93 01 00 01    	imul   $0x1000193,%eax,%ebx
 804d8b9:	0f be c2             	movsbl %dl,%eax
 804d8bc:	0f b6 11             	movzbl (%ecx),%edx
 804d8bf:	31 d8                	xor    %ebx,%eax
 804d8c1:	84 d2                	test   %dl,%dl
 804d8c3:	75 eb                	jne    804d8b0 <main+0x3c90>
 804d8c5:	5b                   	pop    %ebx
 804d8c6:	5d                   	pop    %ebp
 804d8c7:	c3                   	ret    
 804d8c8:	90                   	nop
 804d8c9:	8d b4 26 00 00 00 00 	lea    0x0(%esi,%eiz,1),%esi
 804d8d0:	55                   	push   %ebp
 804d8d1:	b8 c5 9d 1c 81       	mov    $0x811c9dc5,%eax
 804d8d6:	89 e5                	mov    %esp,%ebp
 804d8d8:	8b 55 08             	mov    0x8(%ebp),%edx
 804d8db:	56                   	push   %esi
 804d8dc:	53                   	push   %ebx
 804d8dd:	0f b6 0a             	movzbl (%edx),%ecx
 804d8e0:	84 c9                	test   %cl,%cl
 804d8e2:	74 25                	je     804d909 <main+0x3ce9>
 804d8e4:	8b 35 f8 78 05 08    	mov    0x80578f8,%esi
 804d8ea:	8d b6 00 00 00 00    	lea    0x0(%esi),%esi
